ccopy_reg
_reconstructor
p1
(celbow.chemistry.MoleculeClass
MoleculeClass
p2
c__builtin__
list
p3
(lp4
(ielbow.chemistry.AtomClass
AtomClass
p5
(dp6
S'input_xyz'
p7
(ielbow.chemistry.xyzClass
xyzClass
p8
(dp9
S'dotProduct'
p10
I1
sS'angleScale'
p11
F57.295779513082323
sS'y'
F-0.26000000000000001
sS'x'
F3.7509999999999999
sS'xyz'
p12
(F3.7509999999999999
F-0.26000000000000001
F0.96099999999999997
tp13
sS'z'
F0.96099999999999997
sbsS'starting_xyz'
p14
(ielbow.chemistry.xyzClass
xyzClass
p15
(dp16
g10
I1
sg11
F57.295779513082323
sS'y'
F0
sS'x'
F0
sg12
(F0
F0
F0
tp17
sS'z'
F0
sbsg12
(ielbow.chemistry.xyzClass
xyzClass
p18
(dp19
g10
I1
sg11
F57.295779513082323
sS'y'
F-2.4263141443948602
sS'x'
F-2.468862558616137
sg12
(F-2.468862558616137
F-2.4263141443948602
F-0.69617422892411263
tp20
sS'z'
F-0.69617422892411263
sbsS'number'
p21
I8
sS'ring_id'
p22
(lp23
sS'alt_name'
p24
S'O1'
p25
sS'pi_electrons'
p26
(I2
tp27
sS'occupancy'
p28
F1
sS'charge'
p29
I0
sS'input_index'
p30
I0
sS'unique_residue_key'
p31
S'MTN:1:A:'
p32
sS'unique_residue_key_altloc'
p33
S'MTN:1:A:???'
p34
sS'record_name'
p35
S'HETATM'
p36
sS'cif_index'
p37
I0
sS'original_serial'
p38
S'    1'
p39
sS'input_name'
p40
S' O1 '
p41
sS'cif_energy_type'
p42
S'O'
sS'beginning_xyz'
p43
g8
sS'name'
p44
g41
sS'resSeq'
p45
I1
sS'original_index'
p46
I1
sS'iCode'
p47
S' '
sS'x'
F-2.468862558616137
sS'z'
F-0.69617422892411263
sS'rotation_index'
p48
I0
sS'tempFactor'
p49
F20
sS'tmp_id'
p50
I140711042679296
sS'sign'
p51
S''
sS'resName'
p52
S'MTN'
p53
sS'serial'
p54
S'    1'
p55
sS'id'
p56
I140711042679296
sS'bonded'
p57
(lp58
(ielbow.chemistry.AtomClass
AtomClass
p59
(dp60
g49
F20
sg50
I140711042679584
sg7
(ielbow.chemistry.xyzClass
xyzClass
p61
(dp62
g10
I1
sg11
F57.295779513082323
sS'y'
F0.058999999999999997
sS'x'
F2.3319999999999999
sg12
(F2.3319999999999999
F0.058999999999999997
F0.79700000000000004
tp63
sS'z'
F0.79700000000000004
sbsg14
(ielbow.chemistry.xyzClass
xyzClass
p64
(dp65
g10
I1
sg11
F57.295779513082323
sS'y'
F0
sS'x'
F1.4024580221241159
sg12
(F1.4024580221241159
F0
F0
tp66
sS'z'
F0
sbsg12
(ielbow.chemistry.xyzClass
xyzClass
p67
(dp68
g10
I1
sg11
F57.295779513082323
sS'y'
F-2.3297997469173795
sS'x'
F-1.0698007318265774
sg12
(F-1.0698007318265774
F-2.3297997469173795
F-0.68205618918304045
tp69
sS'z'
F-0.68205618918304045
sbsg21
I7
sg51
S''
sg22
(lp70
sg24
S'N1'
p71
sg52
S'MTN'
p72
sS'exclude'
p73
I00
sg54
S'    2'
p74
sS'ring_atom'
p75
I1
sg56
I140711042679584
sg57
(lp76
g5
a(ielbow.chemistry.AtomClass
AtomClass
p77
(dp78
g49
F20
sg50
I140711042679008
sg7
(ielbow.chemistry.xyzClass
xyzClass
p79
(dp80
g10
I1
sg11
F57.295779513082323
sS'y'
F1.1890000000000001
sS'x'
F2.1480000000000001
sg12
(F2.1480000000000001
F1.1890000000000001
F-0.14399999999999999
tp81
sS'z'
F-0.14399999999999999
sbsg14
(ielbow.chemistry.xyzClass
xyzClass
p82
(dp83
g10
I1
sg11
F57.295779513082323
sS'y'
F0
sS'x'
F1.9445750578682184
sg12
(F1.9445750578682184
F0
F1.5333385111966094
tp84
sS'z'
F1.5333385111966094
sbsg12
(ielbow.chemistry.xyzClass
xyzClass
p85
(dp86
g10
I1
sg11
F57.295779513082323
sS'y'
F-2.2830989076132044
sS'x'
F-0.55561439360754372
sg12
(F-0.55561439360754372
F-2.2830989076132044
F0.82602072277338379
tp87
sS'z'
F0.82602072277338379
sbsg21
I6
sg51
S''
sg22
(lp88
sg24
S'C1'
p89
sg52
S'MTN'
p90
sg73
I00
sg54
S'    3'
p91
sg75
I1
sg56
I140711042679008
sg57
(lp92
g59
a(ielbow.chemistry.AtomClass
AtomClass
p93
(dp94
g49
F20
sg50
I140711042678864
sg7
(ielbow.chemistry.xyzClass
xyzClass
p95
(dp96
g10
I1
sg11
F57.295779513082323
sS'y'
F0.88400000000000001
sS'x'
F0.87
sg12
(F0.87
F0.88400000000000001
F-0.89100000000000001
tp97
sS'z'
F-0.89100000000000001
sbsg14
(ielbow.chemistry.xyzClass
xyzClass
p98
(dp99
g10
I1
sg11
F57.295779513082323
sS'y'
F1.3316534761409227
sS'x'
F2.2330237919932974
sg12
(F2.2330237919932974
F1.3316534761409227
F1.8104877948866385
tp100
sS'z'
F1.8104877948866385
sbsg12
(ielbow.chemistry.xyzClass
xyzClass
p101
(dp102
g10
I1
sg11
F57.295779513082323
sS'y'
F-1.1074084977081424
sS'x'
F0.1652100543533872
sg12
(F0.1652100543533872
F-1.1074084977081424
F0.91997756669042485
tp103
sS'z'
F0.91997756669042485
sbsg21
I6
sg51
S''
sg22
(lp104
sg24
S'C2'
p105
sg52
S'MTN'
p106
sg73
I00
sg54
S'    4'
p107
sg75
I1
sg56
I140711042678864
sg57
(lp108
g77
a(ielbow.chemistry.AtomClass
AtomClass
p109
(dp110
g49
F20
sg50
I140711042679368
sg7
(ielbow.chemistry.xyzClass
xyzClass
p111
(dp112
g10
I1
sg11
F57.295779513082323
sS'y'
F-0.38100000000000001
sS'x'
F0.56799999999999995
sg12
(F0.56799999999999995
F-0.38100000000000001
F-0.73999999999999999
tp113
sS'z'
F-0.73999999999999999
sbsg14
(ielbow.chemistry.xyzClass
xyzClass
p114
(dp115
g10
I1
sg11
F57.295779513082323
sS'y'
F2.0849123792279349
sS'x'
F2.3770055548047657
sg12
(F2.3770055548047657
F2.0849123792279349
F0.592555311593155
tp116
sS'z'
F0.592555311593155
sbsg12
(ielbow.chemistry.xyzClass
xyzClass
p117
(dp118
g10
I1
sg11
F57.295779513082323
sS'y'
F-0.21971544089932404
sS'x'
F-0.097177356649229996
sg12
(F-0.097177356649229996
F-0.21971544089932404
F-0.24898288617987657
tp119
sS'z'
F-0.24898288617987657
sbsg21
I6
sg51
S''
sg22
(lp120
sg24
S'C3'
p121
sg52
S'MTN'
p122
sg73
I00
sg54
S'    5'
p123
sg75
I1
sg56
I140711042679368
sg57
(lp124
g93
a(ielbow.chemistry.AtomClass
AtomClass
p125
(dp126
g7
(ielbow.chemistry.xyzClass
xyzClass
p127
(dp128
g10
I1
sg11
F57.295779513082323
sS'y'
F-1.0649999999999999
sS'x'
F-0.63600000000000001
sg12
(F-0.63600000000000001
F-1.0649999999999999
F-1.3340000000000001
tp129
sS'z'
F-1.3340000000000001
sbsg14
(ielbow.chemistry.xyzClass
xyzClass
p130
(dp131
g10
I1
sg11
F57.295779513082323
sS'y'
F3.06766340951184
sS'x'
F3.5352273661505125
sg12
(F3.5352273661505125
F3.06766340951184
F0.43495860005324793
tp132
sS'z'
F0.43495860005324793
sbsg12
(ielbow.chemistry.xyzClass
xyzClass
p133
(dp134
g10
I1
sg11
F57.295779513082323
sS'y'
F0.98179205668070324
sS'x'
F0.80751278897467804
sg12
(F0.80751278897467804
F0.98179205668070324
F-0.51361237788480929
tp135
sS'z'
F-0.51361237788480929
sbsg21
I6
sg22
(lp136
sg24
S'C4'
p137
sg26
(I1
tp138
sg28
F1
sg29
I0
sg30
I5
sg31
S'MTN:1:A:'
p139
sg33
S'MTN:1:A:???'
p140
sg35
g36
sg37
I5
sg38
S'    6'
p141
sg40
S' C4 '
p142
sg42
S'CH2'
p143
sg43
g127
sg44
g142
sg45
I1
sg46
I6
sg47
S' '
sS'x'
F0.80751278897467804
sS'z'
F-0.51361237788480929
sg48
I5
sg49
F20
sg50
I140711042625480
sg51
S''
sg52
S'MTN'
p144
sg54
S'    6'
p145
sg56
I140711042625480
sg57
(lp146
g109
a(ielbow.chemistry.AtomClass
AtomClass
p147
(dp148
g7
(ielbow.chemistry.xyzClass
xyzClass
p149
(dp150
g10
I1
sg11
F57.295779513082323
sS'y'
F-1.3700000000000001
sS'x'
F-1.8620000000000001
sg12
(F-1.8620000000000001
F-1.3700000000000001
F-0.033000000000000002
tp151
sS'z'
F-0.033000000000000002
sbsg14
(ielbow.chemistry.xyzClass
xyzClass
p152
(dp153
g10
I1
sg11
F57.295779513082323
sS'y'
F2.1465210314648422
sS'x'
F5.0865073259087676
sg12
(F5.0865073259087676
F2.1465210314648422
F0.2248790428678536
tp154
sS'z'
F0.2248790428678536
sbsg12
(ielbow.chemistry.xyzClass
xyzClass
p155
(dp156
g10
I1
sg11
F57.295779513082323
sS'y'
F2.2571378577865158
sS'x'
F0.50341961350478748
sg12
(F0.50341961350478748
F2.2571378577865158
F0.74341765595596132
tp157
sS'z'
F0.74341765595596132
sbsg21
I16
sg22
(lp158
sg24
S'S1'
p159
sg26
(I2
tp160
sg28
F1
sg29
I0
sg30
I6
sg31
S'MTN:1:A:'
p161
sg33
S'MTN:1:A:???'
p162
sg35
g36
sg37
I6
sg38
S'    7'
p163
sg40
S' S1 '
p164
sg42
S'S2'
p165
sg43
g149
sg44
g164
sg45
I1
sg46
I7
sg47
S' '
sS'x'
F0.50341961350478748
sS'z'
F0.74341765595596132
sg48
I6
sg49
F20
sg50
I140711042624616
sg51
S''
sg52
S'MTN'
p166
sg54
S'    7'
p167
sg56
I140711042624616
sg57
(lp168
g125
a(ielbow.chemistry.AtomClass
AtomClass
p169
(dp170
g7
(ielbow.chemistry.xyzClass
xyzClass
p171
(dp172
g10
I1
sg11
F57.295779513082323
sS'y'
F0.47899999999999998
sS'x'
F-2.7000000000000002
sg12
(F-2.7000000000000002
F0.47899999999999998
F0.253
tp173
sS'z'
F0.253
sbsg14
(ielbow.chemistry.xyzClass
xyzClass
p174
(dp175
g10
I1
sg11
F57.295779513082323
sS'y'
F3.4859334943076457
sS'x'
F6.7045970008163227
sg12
(F6.7045970008163227
F3.4859334943076457
F0.2462556988962768
tp176
sS'z'
F0.2462556988962768
sbsg12
(ielbow.chemistry.xyzClass
xyzClass
p177
(dp178
g10
I1
sg11
F57.295779513082323
sS'y'
F3.8653652457576797
sS'x'
F1.8208367867590867
sg12
(F1.8208367867590867
F3.8653652457576797
F0.44223189879923819
tp179
sS'z'
F0.44223189879923819
sbsg21
I16
sg22
(lp180
sg24
S'S2'
p181
sg26
g160
sg28
F1
sg29
I0
sg30
I27
sg31
S'MTN:1:A:'
p182
sg33
S'MTN:1:A:???'
p183
sg35
g36
sg37
I12
sg38
S'   28'
p184
sg40
S' S2 '
p185
sg42
S'S'
sg43
g171
sg44
g185
sg45
I1
sg46
I28
sg47
S' '
sS'x'
F1.8208367867590867
sS'z'
F0.44223189879923819
sg48
I27
sg49
F20
sg50
I140711042693888
sg51
S''
sg52
S'MTN'
p186
sg54
S'   28'
p187
sg56
I140711042693888
sg57
(lp188
g147
a(ielbow.chemistry.AtomClass
AtomClass
p189
(dp190
g7
(ielbow.chemistry.xyzClass
xyzClass
p191
(dp192
g10
I1
sg11
F57.295779513082323
sS'y'
F0.33400000000000002
sS'x'
F-3.4729999999999999
sg12
(F-3.4729999999999999
F0.33400000000000002
F1.4370000000000001
tp193
sS'z'
F1.4370000000000001
sbsg14
(ielbow.chemistry.xyzClass
xyzClass
p194
(dp195
g10
I0
sg11
F57.295779513082323
sS'y'
F4.8715641979148927
sS'x'
F6.249450667542118
sg12
(F6.249450667542118
F4.8715641979148927
F0.11168338117828047
tp196
sS'z'
F0.11168338117828047
sbsg12
(ielbow.chemistry.xyzClass
xyzClass
p197
(dp198
g10
I1
sg11
F57.295779513082323
sS'y'
F3.464598379956696
sS'x'
F3.2104951052201147
sg12
(F3.2104951052201147
F3.464598379956696
F0.67348075809370722
tp199
sS'z'
F0.67348075809370722
sbsg21
I8
sg22
(lp200
sg24
S'O2'
p201
sg26
g27
sg28
F1
sg29
I0
sg30
I28
sg31
S'MTN:1:A:'
p202
sg33
S'MTN:1:A:???'
p203
sg35
g36
sg37
I13
sg38
S'   29'
p204
sg40
S' O2 '
p205
sg42
S'OS'
p206
sg43
g191
sg44
g205
sg45
I1
sg46
I29
sg47
S' '
sS'x'
F3.2104951052201147
sS'z'
F0.67348075809370722
sg48
I28
sg49
F20
sg50
I140711042692952
sg51
S''
sg52
S'MTN'
p207
sg54
S'   29'
p208
sg56
I140711042692952
sg57
(lp209
g169
asS'index'
p210
I29
sS'pre_pdb_write_index'
p211
NsS'stored_xyz'
p212
g191
sS'ring_id_backup'
p213
(lp214
sS'chainID'
p215
S'A'
sS'cif_name'
p216
g205
sS'symbol'
p217
S'O'
sS'segID'
p218
S'A'
sS'old_xyz'
p219
g197
sS'randomised'
p220
I01
sS'chiral'
p221
S''
sS'element'
p222
S'O'
sS'mass'
p223
F15.9994
sS'y'
F3.464598379956696
sS'hcount'
p224
I0
sba(ielbow.chemistry.AtomClass
AtomClass
p225
(dp226
g7
(ielbow.chemistry.xyzClass
xyzClass
p227
(dp228
g10
I1
sg11
F57.295779513082323
sS'y'
F1.375
sS'x'
F-1.599
sg12
(F-1.599
F1.375
F0.20200000000000001
tp229
sS'z'
F0.20200000000000001
sbsg14
(ielbow.chemistry.xyzClass
xyzClass
p230
(dp231
g10
I0
sg11
F57.295779513082323
sS'y'
F3.523704457926252
sS'x'
F7.3460075164274556
sg12
(F7.3460075164274556
F3.523704457926252
F1.5624648192682733
tp232
sS'z'
F1.5624648192682733
sbsg12
(ielbow.chemistry.xyzClass
xyzClass
p233
(dp234
g10
I1
sg11
F57.295779513082323
sS'y'
F4.2564343673275209
sS'x'
F1.8684907218024196
sg12
(F1.8684907218024196
F4.2564343673275209
F-0.96845402420884885
tp235
sS'z'
F-0.96845402420884885
sbsg21
I8
sg22
(lp236
sg24
S'O3'
p237
sg26
g27
sg28
F1
sg29
I0
sg30
I29
sg31
S'MTN:1:A:'
p238
sg33
S'MTN:1:A:???'
p239
sg35
g36
sg37
I14
sg38
S'   30'
p240
sg40
S' O3 '
p241
sg42
S'OS'
p242
sg43
g227
sg44
g241
sg45
I1
sg46
I30
sg47
S' '
sS'x'
F1.8684907218024196
sS'z'
F-0.96845402420884885
sg48
I29
sg49
F20
sg50
I140711042694392
sg51
S''
sg52
S'MTN'
p243
sg54
S'   30'
p244
sg56
I140711042694392
sg57
(lp245
g169
asg210
I30
sg211
Nsg212
g227
sg213
(lp246
sg215
S'A'
sg216
g241
sg217
S'O'
sg218
S'A'
sg219
g233
sg220
I01
sg221
S''
sg222
S'O'
sg223
F15.9994
sS'y'
F4.2564343673275209
sg224
I0
sba(ielbow.chemistry.AtomClass
AtomClass
p247
(dp248
g7
(ielbow.chemistry.xyzClass
xyzClass
p249
(dp250
g10
I1
sg11
F57.295779513082323
sS'y'
F0.71399999999999997
sS'x'
F-3.7799999999999998
sg12
(F-3.7799999999999998
F0.71399999999999997
F-1.1859999999999999
tp251
sS'z'
F-1.1859999999999999
sbsg14
(ielbow.chemistry.xyzClass
xyzClass
p252
(dp253
g10
I1
sg11
F57.295779513082323
sS'y'
F3.0539785552513092
sS'x'
F7.8956193927683795
sg12
(F7.8956193927683795
F3.0539785552513092
F-1.0552763349387708
tp254
sS'z'
F-1.0552763349387708
sbsg12
(ielbow.chemistry.xyzClass
xyzClass
p255
(dp256
g10
I1
sg11
F57.295779513082323
sS'y'
F5.2667707385128404
sS'x'
F1.3543239035517831
sg12
(F1.3543239035517831
F5.2667707385128404
F1.4993663057738289
tp257
sS'z'
F1.4993663057738289
sbsg21
I6
sg22
(lp258
sg24
S'C12'
p259
sg26
g138
sg28
F1
sg29
I0
sg30
I30
sg31
S'MTN:1:A:'
p260
sg33
S'MTN:1:A:???'
p261
sg35
g36
sg37
I15
sg38
S'   31'
p262
sg40
S' C12'
p263
sg42
S'CH3'
p264
sg43
g249
sg44
g263
sg45
I1
sg46
I31
sg47
S' '
sS'x'
F1.3543239035517831
sS'z'
F1.4993663057738289
sg48
I30
sg49
F20
sg50
I140711042694536
sg51
S''
sg52
S'MTN'
p265
sg54
S'   31'
p266
sg56
I140711042694536
sg57
(lp267
g169
a(ielbow.chemistry.AtomClass
AtomClass
p268
(dp269
g7
(ielbow.chemistry.xyzClass
xyzClass
p270
(dp271
g10
I1
sg11
F57.295779513082323
sS'y'
F-0.074999999999999997
sS'x'
F-4.5309999999999997
sg12
(F-4.5309999999999997
F-0.074999999999999997
F-1.2090000000000001
tp272
sS'z'
F-1.2090000000000001
sbsg14
(ielbow.chemistry.xyzClass
xyzClass
p273
(dp274
g10
I0
sg11
F57.295779513082323
sS'y'
F2.0124976274041519
sS'x'
F8.1768146960384946
sg12
(F8.1768146960384946
F2.0124976274041519
F-0.95625579247180403
tp275
sS'z'
F-0.95625579247180403
sbsg12
(ielbow.chemistry.xyzClass
xyzClass
p276
(dp277
g10
I0
sg11
F57.295779513082323
sS'y'
F5.4760497166102882
sS'x'
F0.29551466061163456
sg12
(F0.29551466061163456
F5.4760497166102882
F1.3767649280537613
tp278
sS'z'
F1.3767649280537613
sbsg21
I1
sg22
(lp279
sg24
S'H4'
p280
sg26
Nsg28
F1
sg29
I0
sg30
I31
sg31
S'MTN:1:A:'
p281
sg33
S'MTN:1:A:???'
p282
sg35
g36
sg37
I31
sg38
S'   32'
p283
sg40
S' H4 '
p284
sg42
S'HCH3'
p285
sg43
g270
sg44
g284
sg45
I1
sg46
I32
sg47
S' '
sS'x'
F0.29551466061163456
sS'z'
F1.3767649280537613
sg48
I31
sg49
F20
sg50
I140711042694680
sg51
S''
sg52
S'MTN'
p286
sg54
S'   32'
p287
sg56
I140711042694680
sg57
(lp288
g247
asg210
I32
sg211
Nsg212
g270
sg213
(lp289
sg215
S'A'
sg216
g284
sg217
S'H'
sg218
S'A'
sg219
g276
sg220
I01
sg221
S''
sg222
S'H'
sg223
F1.0079
sS'y'
F5.4760497166102882
sg224
I0
sba(ielbow.chemistry.AtomClass
AtomClass
p290
(dp291
g7
(ielbow.chemistry.xyzClass
xyzClass
p292
(dp293
g10
I1
sg11
F57.295779513082323
sS'y'
F1.6839999999999999
sS'x'
F-4.2720000000000002
sg12
(F-4.2720000000000002
F1.6839999999999999
F-1.1160000000000001
tp294
sS'z'
F-1.1160000000000001
sbsg14
(ielbow.chemistry.xyzClass
xyzClass
p295
(dp296
g10
I0
sg11
F57.295779513082323
sS'y'
F3.6766253138832039
sS'x'
F8.7769134506183342
sg12
(F8.7769134506183342
F3.6766253138832039
F-0.95941087168657724
tp297
sS'z'
F-0.95941087168657724
sbsg12
(ielbow.chemistry.xyzClass
xyzClass
p298
(dp299
g10
I0
sg11
F57.295779513082323
sS'y'
F6.1421047685210191
sS'x'
F1.9316449258358834
sg12
(F1.9316449258358834
F6.1421047685210191
F1.2158229383272519
tp300
sS'z'
F1.2158229383272519
sbsg21
I1
sg22
(lp301
sg24
S'H1'
p302
sg26
Nsg28
F1
sg29
I0
sg30
I32
sg31
S'MTN:1:A:'
p303
sg33
S'MTN:1:A:???'
p304
sg35
g36
sg37
I32
sg38
S'   33'
p305
sg40
S' H1 '
p306
sg42
g285
sg43
g292
sg44
g306
sg45
I1
sg46
I33
sg47
S' '
sS'x'
F1.9316449258358834
sS'z'
F1.2158229383272519
sg48
I32
sg49
F20
sg50
I140711042694824
sg51
S''
sg52
S'MTN'
p307
sg54
S'   33'
p308
sg56
I140711042694824
sg57
(lp309
g247
asg210
I33
sg211
Nsg212
g292
sg213
(lp310
sg215
S'A'
sg216
g306
sg217
S'H'
sg218
S'A'
sg219
g298
sg220
I01
sg221
S''
sg222
S'H'
sg223
F1.0079
sS'y'
F6.1421047685210191
sg224
I0
sba(ielbow.chemistry.AtomClass
AtomClass
p311
(dp312
g7
(ielbow.chemistry.xyzClass
xyzClass
p313
(dp314
g10
I1
sg11
F57.295779513082323
sS'y'
F0.67400000000000004
sS'x'
F-3.1829999999999998
sg12
(F-3.1829999999999998
F0.67400000000000004
F-2.097
tp315
sS'z'
F-2.097
sbsg14
(ielbow.chemistry.xyzClass
xyzClass
p316
(dp317
g10
I0
sg11
F57.295779513082323
sS'y'
F3.2151945176504917
sS'x'
F7.4435316819920843
sg12
(F7.4435316819920843
F3.2151945176504917
F-2.026453200763815
tp318
sS'z'
F-2.026453200763815
sbsg12
(ielbow.chemistry.xyzClass
xyzClass
p319
(dp320
g10
I0
sg11
F57.295779513082323
sS'y'
F5.020204903406519
sS'x'
F1.5568353014517586
sg12
(F1.5568353014517586
F5.020204903406519
F2.5376823073007682
tp321
sS'z'
F2.5376823073007682
sbsg21
I1
sg22
(lp322
sg24
S'H3'
p323
sg26
Nsg28
F1
sg29
I0
sg30
I33
sg31
S'MTN:1:A:'
p324
sg33
S'MTN:1:A:???'
p325
sg35
g36
sg37
I33
sg38
S'   34'
p326
sg40
S' H3 '
p327
sg42
g285
sg43
g313
sg44
g327
sg45
I1
sg46
I34
sg47
S' '
sS'x'
F1.5568353014517586
sS'z'
F2.5376823073007682
sg48
I33
sg49
F20
sg50
I140711042694968
sg51
S''
sg52
S'MTN'
p328
sg54
S'   34'
p329
sg56
I140711042694968
sg57
(lp330
g247
asg210
I34
sg211
Nsg212
g313
sg213
(lp331
sg215
S'A'
sg216
g327
sg217
S'H'
sg218
S'A'
sg219
g319
sg220
I01
sg221
S''
sg222
S'H'
sg223
F1.0079
sS'y'
F5.020204903406519
sg224
I0
sbasg210
I31
sg211
Nsg212
g249
sg213
(lp332
sg215
S'A'
sg216
g263
sg217
S'C'
sg218
S'A'
sg219
g255
sg220
I01
sg221
S''
sg222
S'C'
sg223
F12.010999999999999
sS'y'
F5.2667707385128404
sg224
I0
sbasg210
I28
sg211
Nsg212
g171
sg213
(lp333
sg215
S'A'
sg216
g185
sg217
S'S'
sg218
S'A'
sg219
g177
sg220
I01
sg221
S''
sg222
S'S'
sg223
F32.060000000000002
sS'y'
F3.8653652457576797
sg224
I0
sbasg210
I7
sg211
Nsg212
g149
sg213
(lp334
sg215
S'A'
sg216
g164
sg217
S'S'
sg218
S'A'
sg219
g155
sg220
I01
sg221
S''
sg222
S'S'
sg223
F32.060000000000002
sS'y'
F2.2571378577865158
sg224
I0
sba(ielbow.chemistry.AtomClass
AtomClass
p335
(dp336
g7
(ielbow.chemistry.xyzClass
xyzClass
p337
(dp338
g10
I1
sg11
F57.295779513082323
sS'y'
F-0.42899999999999999
sS'x'
F-1.073
sg12
(F-1.073
F-0.42899999999999999
F-2.1030000000000002
tp339
sS'z'
F-2.1030000000000002
sbsg14
(ielbow.chemistry.xyzClass
xyzClass
p340
(dp341
g10
I0
sg11
F57.295779513082323
sS'y'
F3.6913569813232074
sS'x'
F3.6023570369722373
sg12
(F3.6023570369722373
F3.6913569813232074
F1.3181677062435913
tp342
sS'z'
F1.3181677062435913
sbsg12
(ielbow.chemistry.xyzClass
xyzClass
p343
(dp344
g10
I1
sg11
F57.295779513082323
sS'y'
F1.3856023287277051
sS'x'
F0.59378891195439776
sg12
(F0.59378891195439776
F1.3856023287277051
F-1.4974834692051644
tp345
sS'z'
F-1.4974834692051644
sbsg21
I1
sg22
(lp346
sg24
S'H41'
p347
sg26
Nsg28
F1
sg29
I0
sg30
I13
sg31
S'MTN:1:A:'
p348
sg33
S'MTN:1:A:???'
p349
sg35
g36
sg37
I17
sg38
S'   14'
p350
sg40
S' H41'
p351
sg42
S'HCH2'
p352
sg43
g337
sg44
g351
sg45
I1
sg46
I14
sg47
S' '
sS'x'
F0.59378891195439776
sS'z'
F-1.4974834692051644
sg48
I13
sg49
F20
sg50
I140711042624040
sg51
S''
sg52
S'MTN'
p353
sg54
S'   14'
p354
sg56
I140711042624040
sg57
(lp355
g125
asg210
I14
sg211
Nsg212
g337
sg213
(lp356
sg215
S'A'
sg216
g351
sg217
S'H'
sg218
S'A'
sg219
g343
sg220
I01
sg221
S''
sg222
S'H'
sg223
F1.0079
sS'y'
F1.3856023287277051
sg224
I0
sba(ielbow.chemistry.AtomClass
AtomClass
p357
(dp358
g7
(ielbow.chemistry.xyzClass
xyzClass
p359
(dp360
g10
I1
sg11
F57.295779513082323
sS'y'
F-2.0139999999999998
sS'x'
F-0.33300000000000002
sg12
(F-0.33300000000000002
F-2.0139999999999998
F-1.7769999999999999
tp361
sS'z'
F-1.7769999999999999
sbsg14
(ielbow.chemistry.xyzClass
xyzClass
p362
(dp363
g10
I0
sg11
F57.295779513082323
sS'y'
F3.690529962812743
sS'x'
F3.3645190801932117
sg12
(F3.3645190801932117
F3.690529962812743
F-0.43478522853398255
tp364
sS'z'
F-0.43478522853398255
sbsg12
(ielbow.chemistry.xyzClass
xyzClass
p365
(dp366
g10
I1
sg11
F57.295779513082323
sS'y'
F0.66978095956454586
sS'x'
F1.8454679938330956
sg12
(F1.8454679938330956
F0.66978095956454586
F-0.46843339243686011
tp367
sS'z'
F-0.46843339243686011
sbsg21
I1
sg22
(lp368
sg24
S'H42'
p369
sg26
Nsg28
F1
sg29
I0
sg30
I14
sg31
S'MTN:1:A:'
p370
sg33
S'MTN:1:A:???'
p371
sg35
g36
sg37
I18
sg38
S'   15'
p372
sg40
S' H42'
p373
sg42
g352
sg43
g359
sg44
g373
sg45
I1
sg46
I15
sg47
S' '
sS'x'
F1.8454679938330956
sS'z'
F-0.46843339243686011
sg48
I14
sg49
F20
sg50
I140711042624976
sg51
S''
sg52
S'MTN'
p374
sg54
S'   15'
p375
sg56
I140711042624976
sg57
(lp376
g125
asg210
I15
sg211
Nsg212
g359
sg213
(lp377
sg215
S'A'
sg216
g373
sg217
S'H'
sg218
S'A'
sg219
g365
sg220
I01
sg221
S''
sg222
S'H'
sg223
F1.0079
sS'y'
F0.66978095956454586
sg224
I0
sbasg210
I6
sg211
Nsg212
g127
sg213
(lp378
sg215
S'A'
sg216
g142
sg217
S'C'
sg218
S'A'
sg219
g133
sg220
I01
sg221
S''
sg222
S'C'
sg223
F12.010999999999999
sS'y'
F0.98179205668070324
sg224
I0
sba(ielbow.chemistry.AtomClass
AtomClass
p379
(dp380
g49
F20
sg50
I140711042625408
sg7
(ielbow.chemistry.xyzClass
xyzClass
p381
(dp382
g10
I1
sg11
F57.295779513082323
sS'y'
F-1.0489999999999999
sS'x'
F1.6140000000000001
sg12
(F1.6140000000000001
F-1.0489999999999999
F0.123
tp383
sS'z'
F0.123
sbsg14
(ielbow.chemistry.xyzClass
xyzClass
p384
(dp385
g10
I1
sg11
F57.295779513082323
sS'y'
F1.2913837394604413
sS'x'
F1.903624485760345
sg12
(F1.903624485760345
F1.2913837394604413
F-0.58452593123776353
tp386
sS'z'
F-0.58452593123776353
sbsg12
(ielbow.chemistry.xyzClass
xyzClass
p387
(dp388
g10
I1
sg11
F57.295779513082323
sS'y'
F-0.93230279394988336
sS'x'
F-0.62726277304256417
sg12
(F-0.62726277304256417
F-0.93230279394988336
F-1.3081770637980923
tp389
sS'z'
F-1.3081770637980923
sbsg21
I6
sg51
S''
sg22
(lp390
sg24
S'C5'
p391
sg52
S'MTN'
p392
sg73
I00
sg54
S'    8'
p393
sg75
I1
sg56
I140711042625408
sg57
(lp394
g59
ag109
a(ielbow.chemistry.AtomClass
AtomClass
p395
(dp396
g7
(ielbow.chemistry.xyzClass
xyzClass
p397
(dp398
g10
I1
sg11
F57.295779513082323
sS'y'
F-1.9550000000000001
sS'x'
F0.94599999999999995
sg12
(F0.94599999999999995
F-1.9550000000000001
F1.159
tp399
sS'z'
F1.159
sbsg14
(ielbow.chemistry.xyzClass
xyzClass
p400
(dp401
g10
I1
sg11
F57.295779513082323
sS'y'
F2.0256221531023724
sS'x'
F0.76971927485096225
sg12
(F0.76971927485096225
F2.0256221531023724
F-1.2967522968704361
tp402
sS'z'
F-1.2967522968704361
sbsg12
(ielbow.chemistry.xyzClass
xyzClass
p403
(dp404
g10
I1
sg11
F57.295779513082323
sS'y'
F-0.20254605242860091
sS'x'
F-1.839462322055935
sg12
(F-1.839462322055935
F-0.20254605242860091
F-1.8827560156485905
tp405
sS'z'
F-1.8827560156485905
sbsg21
I6
sg22
(lp406
sg24
S'C6'
p407
sg26
g138
sg28
F1
sg29
I0
sg30
I8
sg31
S'MTN:1:A:'
p408
sg33
S'MTN:1:A:???'
p409
sg35
g36
sg37
I8
sg38
S'    9'
p410
sg40
S' C6 '
p411
sg42
g264
sg43
g397
sg44
g411
sg45
I1
sg46
I9
sg47
S' '
sS'x'
F-1.839462322055935
sS'z'
F-1.8827560156485905
sg48
I8
sg49
F20
sg50
I140711042624472
sg51
S''
sg52
S'MTN'
p412
sg54
S'    9'
p413
sg56
I140711042624472
sg57
(lp414
g379
a(ielbow.chemistry.AtomClass
AtomClass
p415
(dp416
g7
(ielbow.chemistry.xyzClass
xyzClass
p417
(dp418
g10
I1
sg11
F57.295779513082323
sS'y'
F-1.3680000000000001
sS'x'
F0.254
sg12
(F0.254
F-1.3680000000000001
F1.7629999999999999
tp419
sS'z'
F1.7629999999999999
sbsg14
(ielbow.chemistry.xyzClass
xyzClass
p420
(dp421
g10
I1
sg11
F57.295779513082323
sS'y'
F2.3648467731593619
sS'x'
F0.044544946098611204
sg12
(F0.044544946098611204
F2.3648467731593619
F-0.56695284527652845
tp422
sS'z'
F-0.56695284527652845
sbsg12
(ielbow.chemistry.xyzClass
xyzClass
p423
(dp424
g10
I0
sg11
F57.295779513082323
sS'y'
F0.090525494524103856
sS'x'
F-2.5025664845609286
sg12
(F-2.5025664845609286
F0.090525494524103856
F-1.073862708526119
tp425
sS'z'
F-1.073862708526119
sbsg21
I1
sg22
(lp426
sg24
S'H61'
p427
sg26
Nsg28
F1
sg29
I0
sg30
I15
sg31
S'MTN:1:A:'
p428
sg33
S'MTN:1:A:???'
p429
sg35
g36
sg37
I19
sg38
S'   16'
p430
sg40
S' H61'
p431
sg42
g285
sg43
g417
sg44
g431
sg45
I1
sg46
I16
sg47
S' '
sS'x'
F-2.5025664845609286
sS'z'
F-1.073862708526119
sg48
I15
sg49
F20
sg50
I140711042624400
sg51
S''
sg52
S'MTN'
p432
sg54
S'   16'
p433
sg56
I140711042624400
sg57
(lp434
g395
asg210
I16
sg211
Nsg212
g417
sg213
(lp435
sg215
S'A'
sg216
g431
sg217
S'H'
sg218
S'A'
sg219
g423
sg220
I01
sg221
S''
sg222
S'H'
sg223
F1.0079
sS'y'
F0.090525494524103856
sg224
I0
sba(ielbow.chemistry.AtomClass
AtomClass
p436
(dp437
g7
(ielbow.chemistry.xyzClass
xyzClass
p438
(dp439
g10
I1
sg11
F57.295779513082323
sS'y'
F-2.7490000000000001
sS'x'
F0.40100000000000002
sg12
(F0.40100000000000002
F-2.7490000000000001
F0.64900000000000002
tp440
sS'z'
F0.64900000000000002
sbsg14
(ielbow.chemistry.xyzClass
xyzClass
p441
(dp442
g10
I1
sg11
F57.295779513082323
sS'y'
F1.3542894042880929
sS'x'
F0.2891548747287877
sg12
(F0.2891548747287877
F1.3542894042880929
F-1.9981285063227372
tp443
sS'z'
F-1.9981285063227372
sbsg12
(ielbow.chemistry.xyzClass
xyzClass
p444
(dp445
g10
I0
sg11
F57.295779513082323
sS'y'
F-0.86168450784651585
sS'x'
F-2.3692525117254037
sg12
(F-2.3692525117254037
F-0.86168450784651585
F-2.5644931180154424
tp446
sS'z'
F-2.5644931180154424
sbsg21
I1
sg22
(lp447
sg24
S'H62'
p448
sg26
Nsg28
F1
sg29
I0
sg30
I16
sg31
S'MTN:1:A:'
p449
sg33
S'MTN:1:A:???'
p450
sg35
g36
sg37
I20
sg38
S'   17'
p451
sg40
S' H62'
p452
sg42
g285
sg43
g438
sg44
g452
sg45
I1
sg46
I17
sg47
S' '
sS'x'
F-2.3692525117254037
sS'z'
F-2.5644931180154424
sg48
I16
sg49
F20
sg50
I140711042624256
sg51
S''
sg52
S'MTN'
p453
sg54
S'   17'
p454
sg56
I140711042624256
sg57
(lp455
g395
asg210
I17
sg211
Nsg212
g438
sg213
(lp456
sg215
S'A'
sg216
g452
sg217
S'H'
sg218
S'A'
sg219
g444
sg220
I01
sg221
S''
sg222
S'H'
sg223
F1.0079
sS'y'
F-0.86168450784651585
sg224
I0
sba(ielbow.chemistry.AtomClass
AtomClass
p457
(dp458
g7
(ielbow.chemistry.xyzClass
xyzClass
p459
(dp460
g10
I1
sg11
F57.295779513082323
sS'y'
F-2.3929999999999998
sS'x'
F1.708
sg12
(F1.708
F-2.3929999999999998
F1.8029999999999999
tp461
sS'z'
F1.8029999999999999
sbsg14
(ielbow.chemistry.xyzClass
xyzClass
p462
(dp463
g10
I1
sg11
F57.295779513082323
sS'y'
F2.8786590453483845
sS'x'
F1.1709534322298212
sg12
(F1.1709534322298212
F2.8786590453483845
F-1.8305102953123733
tp464
sS'z'
F-1.8305102953123733
sbsg12
(ielbow.chemistry.xyzClass
xyzClass
p465
(dp466
g10
I0
sg11
F57.295779513082323
sS'y'
F0.68256696757684088
sS'x'
F-1.5087561337274447
sg12
(F-1.5087561337274447
F0.68256696757684088
F-2.4185868193753257
tp467
sS'z'
F-2.4185868193753257
sbsg21
I1
sg22
(lp468
sg24
S'H63'
p469
sg26
Nsg28
F1
sg29
I0
sg30
I17
sg31
S'MTN:1:A:'
p470
sg33
S'MTN:1:A:???'
p471
sg35
g36
sg37
I21
sg38
S'   18'
p472
sg40
S' H63'
p473
sg42
g285
sg43
g459
sg44
g473
sg45
I1
sg46
I18
sg47
S' '
sS'x'
F-1.5087561337274447
sS'z'
F-2.4185868193753257
sg48
I17
sg49
F20
sg50
I140711042622744
sg51
S''
sg52
S'MTN'
p474
sg54
S'   18'
p475
sg56
I140711042622744
sg57
(lp476
g395
asg210
I18
sg211
Nsg212
g459
sg213
(lp477
sg215
S'A'
sg216
g473
sg217
S'H'
sg218
S'A'
sg219
g465
sg220
I01
sg221
S''
sg222
S'H'
sg223
F1.0079
sS'y'
F0.68256696757684088
sg224
I0
sbasg210
I9
sg211
Nsg212
g397
sg213
(lp478
sg215
S'A'
sg216
g411
sg217
S'C'
sg218
S'A'
sg219
g403
sg220
I01
sg221
S''
sg222
S'C'
sg223
F12.010999999999999
sS'y'
F-0.20254605242860091
sg224
I0
sba(ielbow.chemistry.AtomClass
AtomClass
p479
(dp480
g7
(ielbow.chemistry.xyzClass
xyzClass
p481
(dp482
g10
I1
sg11
F57.295779513082323
sS'y'
F-1.857
sS'x'
F2.5800000000000001
sg12
(F2.5800000000000001
F-1.857
F-0.746
tp483
sS'z'
F-0.746
sbsg14
(ielbow.chemistry.xyzClass
xyzClass
p484
(dp485
g10
I1
sg11
F57.295779513082323
sS'y'
F1.0244321697938554
sS'x'
F3.0616915243306004
sg12
(F3.0616915243306004
F1.0244321697938554
F-1.5435520719976208
tp486
sS'z'
F-1.5435520719976208
sbsg12
(ielbow.chemistry.xyzClass
xyzClass
p487
(dp488
g10
I1
sg11
F57.295779513082323
sS'y'
F-1.1474748048845889
sS'x'
F0.43411633821947637
sg12
(F0.43411633821947637
F-1.1474748048845889
F-2.384879721551628
tp489
sS'z'
F-2.384879721551628
sbsg21
I6
sg22
(lp490
sg24
S'C7'
p491
sg26
g138
sg28
F1
sg29
I0
sg30
I9
sg31
S'MTN:1:A:'
p492
sg33
S'MTN:1:A:???'
p493
sg35
g36
sg37
I9
sg38
S'   10'
p494
sg40
S' C7 '
p495
sg42
g264
sg43
g481
sg44
g495
sg45
I1
sg46
I10
sg47
S' '
sS'x'
F0.43411633821947637
sS'z'
F-2.384879721551628
sg48
I9
sg49
F20
sg50
I140711042625048
sg51
S''
sg52
S'MTN'
p496
sg54
S'   10'
p497
sg56
I140711042625048
sg57
(lp498
g379
a(ielbow.chemistry.AtomClass
AtomClass
p499
(dp500
g7
(ielbow.chemistry.xyzClass
xyzClass
p501
(dp502
g10
I1
sg11
F57.295779513082323
sS'y'
F-2.1779999999999999
sS'x'
F3.4289999999999998
sg12
(F3.4289999999999998
F-2.1779999999999999
F-0.14199999999999999
tp503
sS'z'
F-0.14199999999999999
sbsg14
(ielbow.chemistry.xyzClass
xyzClass
p504
(dp505
g10
I1
sg11
F57.295779513082323
sS'y'
F0.60105961631048366
sS'x'
F3.8945305052405654
sg12
(F3.8945305052405654
F0.60105961631048366
F-0.99519698419882918
tp506
sS'z'
F-0.99519698419882918
sbsg12
(ielbow.chemistry.xyzClass
xyzClass
p507
(dp508
g10
I0
sg11
F57.295779513082323
sS'y'
F-1.23841914704735
sS'x'
F1.4105319867019595
sg12
(F1.4105319867019595
F-1.23841914704735
F-1.9177094525201364
tp509
sS'z'
F-1.9177094525201364
sbsg21
I1
sg22
(lp510
sg24
S'H71'
p511
sg26
Nsg28
F1
sg29
I0
sg30
I18
sg31
S'MTN:1:A:'
p512
sg33
S'MTN:1:A:???'
p513
sg35
g36
sg37
I22
sg38
S'   19'
p514
sg40
S' H71'
p515
sg42
g285
sg43
g501
sg44
g515
sg45
I1
sg46
I19
sg47
S' '
sS'x'
F1.4105319867019595
sS'z'
F-1.9177094525201364
sg48
I18
sg49
F20
sg50
I140711042622888
sg51
S''
sg52
S'MTN'
p516
sg54
S'   19'
p517
sg56
I140711042622888
sg57
(lp518
g479
asg210
I19
sg211
Nsg212
g501
sg213
(lp519
sg215
S'A'
sg216
g515
sg217
S'H'
sg218
S'A'
sg219
g507
sg220
I01
sg221
S''
sg222
S'H'
sg223
F1.0079
sS'y'
F-1.23841914704735
sg224
I0
sba(ielbow.chemistry.AtomClass
AtomClass
p520
(dp521
g7
(ielbow.chemistry.xyzClass
xyzClass
p522
(dp523
g10
I1
sg11
F57.295779513082323
sS'y'
F-2.7309999999999999
sS'x'
F2.0659999999999998
sg12
(F2.0659999999999998
F-2.7309999999999999
F-1.1439999999999999
tp524
sS'z'
F-1.1439999999999999
sbsg14
(ielbow.chemistry.xyzClass
xyzClass
p525
(dp526
g10
I1
sg11
F57.295779513082323
sS'y'
F1.9544774136322007
sS'x'
F3.3693019713566454
sg12
(F3.3693019713566454
F1.9544774136322007
F-2.0060994174392626
tp527
sS'z'
F-2.0060994174392626
sbsg12
(ielbow.chemistry.xyzClass
xyzClass
p528
(dp529
g10
I0
sg11
F57.295779513082323
sS'y'
F-0.30114085801320911
sS'x'
F0.43590184369976059
sg12
(F0.43590184369976059
F-0.30114085801320911
F-3.0657776817946658
tp530
sS'z'
F-3.0657776817946658
sbsg21
I1
sg22
(lp531
sg24
S'H72'
p532
sg26
Nsg28
F1
sg29
I0
sg30
I19
sg31
S'MTN:1:A:'
p533
sg33
S'MTN:1:A:???'
p534
sg35
g36
sg37
I23
sg38
S'   20'
p535
sg40
S' H72'
p536
sg42
g285
sg43
g522
sg44
g536
sg45
I1
sg46
I20
sg47
S' '
sS'x'
F0.43590184369976059
sS'z'
F-3.0657776817946658
sg48
I19
sg49
F20
sg50
I140711042623032
sg51
S''
sg52
S'MTN'
p537
sg54
S'   20'
p538
sg56
I140711042623032
sg57
(lp539
g479
asg210
I20
sg211
Nsg212
g522
sg213
(lp540
sg215
S'A'
sg216
g536
sg217
S'H'
sg218
S'A'
sg219
g528
sg220
I01
sg221
S''
sg222
S'H'
sg223
F1.0079
sS'y'
F-0.30114085801320911
sg224
I0
sba(ielbow.chemistry.AtomClass
AtomClass
p541
(dp542
g7
(ielbow.chemistry.xyzClass
xyzClass
p543
(dp544
g10
I1
sg11
F57.295779513082323
sS'y'
F-1.2370000000000001
sS'x'
F2.9340000000000002
sg12
(F2.9340000000000002
F-1.2370000000000001
F-1.569
tp545
sS'z'
F-1.569
sbsg14
(ielbow.chemistry.xyzClass
xyzClass
p546
(dp547
g10
I1
sg11
F57.295779513082323
sS'y'
F0.32827823789170318
sS'x'
F2.7428130168555231
sg12
(F2.7428130168555231
F0.32827823789170318
F-2.3098709286419297
tp548
sS'z'
F-2.3098709286419297
sbsg12
(ielbow.chemistry.xyzClass
xyzClass
p549
(dp550
g10
I0
sg11
F57.295779513082323
sS'y'
F-2.0559072376570602
sS'x'
F0.21083100970313629
sg12
(F0.21083100970313629
F-2.0559072376570602
F-2.936966593847127
tp551
sS'z'
F-2.936966593847127
sbsg21
I1
sg22
(lp552
sg24
S'H73'
p553
sg26
Nsg28
F1
sg29
I0
sg30
I20
sg31
S'MTN:1:A:'
p554
sg33
S'MTN:1:A:???'
p555
sg35
g36
sg37
I24
sg38
S'   21'
p556
sg40
S' H73'
p557
sg42
g285
sg43
g543
sg44
g557
sg45
I1
sg46
I21
sg47
S' '
sS'x'
F0.21083100970313629
sS'z'
F-2.936966593847127
sg48
I20
sg49
F20
sg50
I140711042623176
sg51
S''
sg52
S'MTN'
p558
sg54
S'   21'
p559
sg56
I140711042623176
sg57
(lp560
g479
asg210
I21
sg211
Nsg212
g543
sg213
(lp561
sg215
S'A'
sg216
g557
sg217
S'H'
sg218
S'A'
sg219
g549
sg220
I01
sg221
S''
sg222
S'H'
sg223
F1.0079
sS'y'
F-2.0559072376570602
sg224
I0
sbasg210
I10
sg211
Nsg212
g481
sg213
(lp562
sg215
S'A'
sg216
g495
sg217
S'C'
sg218
S'A'
sg219
g487
sg220
I01
sg221
S''
sg222
S'C'
sg223
F12.010999999999999
sS'y'
F-1.1474748048845889
sg224
I0
sbasg26
g138
sg210
I8
sg211
Nsg212
g381
sg33
S'MTN:1:A:???'
p563
sS'overlap'
p564
I01
sg29
I0
sg45
I1
sg30
I7
sg31
S'MTN:1:A:'
p565
sg28
F1
sg213
(lp566
sg215
S'A'
sg216
S' C5 '
p567
sg37
I7
sg35
g36
sg217
S'C'
sg218
S'A'
sg38
S'    8'
p568
sg40
g567
sg220
I01
sg42
S'CR5'
p569
sg219
g387
sg44
g567
sS'z'
F-1.3081770637980923
sg43
g381
sg221
S''
sS'alternating_ring_index'
p570
I1
sS'ring_bonded'
p571
(lp572
(ielbow.chemistry.RingClass
empty
p573
(dp574
g210
I2
sg7
g61
sg570
I0
sg14
(ielbow.chemistry.xyzClass
xyzClass
p575
(dp576
g10
I0
sg11
F57.295779513082323
sS'y'
F-1.1011055363769386
sS'x'
F0.80000000000000004
sg12
(F0.80000000000000004
F-1.1011055363769386
F0
tp577
sS'z'
F0
sbsg217
S'N'
sg571
(lp578
(ielbow.chemistry.RingClass
empty
p579
(dp580
g210
I3
sg7
g79
sg570
I0
sg14
(ielbow.chemistry.xyzClass
xyzClass
p581
(dp582
g10
I0
sg11
F57.295779513082323
sS'y'
F-1.1011055363769389
sS'x'
F-0.80000000000000004
sg12
(F-0.80000000000000004
F-1.1011055363769389
F0
tp583
sS'z'
F0
sbsg217
S'C'
sg571
(lp584
(ielbow.chemistry.RingClass
empty
p585
(dp586
g210
I4
sg7
g95
sg570
I1
sg14
(ielbow.chemistry.xyzClass
xyzClass
p587
(dp588
g10
I0
sg11
F57.295779513082323
sS'y'
F0.42058488969530683
sS'x'
F-1.2944271909999161
sg12
(F-1.2944271909999161
F0.42058488969530683
F0
tp589
sS'z'
F0
sbsg217
S'C'
sg571
(lp590
(ielbow.chemistry.RingClass
empty
p591
(dp592
g210
I5
sg7
g111
sg570
I0
sg14
(ielbow.chemistry.xyzClass
xyzClass
p593
(dp594
g10
I0
sg11
F57.295779513082323
sS'y'
F1.3610412933632641
sS'x'
F-2.2204460492503131e-16
sg12
(F-2.2204460492503131e-16
F1.3610412933632641
F0
tp595
sS'z'
F0
sbsg217
S'C'
sg571
(lp596
(ielbow.chemistry.RingClass
empty
p597
(dp598
g210
I8
sg7
g381
sg570
I1
sg14
(ielbow.chemistry.xyzClass
xyzClass
p599
(dp600
g10
I0
sg11
F57.295779513082323
sS'y'
F0.42058488969530705
sS'x'
F1.2944271909999159
sg12
(F1.2944271909999159
F0.42058488969530705
F0
tp601
sS'z'
F0
sbsg217
S'C'
sg571
g572
sg564
I01
sS'ring_indices_list'
p602
(lp603
I0
asg73
I00
sg12
(ielbow.chemistry.xyzClass
xyzClass
p604
(dp605
g10
I1
sg11
F57.295779513082323
sS'y'
F1.5216904260722459
sS'x'
F2.0944271909999159
sg12
(F1.6000000000000001
F0
I0
tp606
sS'z'
I0
sbsbag585
asg564
I01
sg602
(lp607
I0
asg73
I00
sg12
(ielbow.chemistry.xyzClass
xyzClass
p608
(dp609
g10
I1
sg11
F57.295779513082323
sS'y'
F2.4621468297402029
sS'x'
F0.79999999999999982
sg12
(F1.6000000000000001
F0
I0
tp610
sS'z'
I0
sbsS'double_bond'
p611
I01
sbag579
asg564
I01
sg602
(lp612
I0
asg73
I00
sg12
(ielbow.chemistry.xyzClass
xyzClass
p613
(dp614
g10
I1
sg11
F57.295779513082323
sS'y'
F1.5216904260722457
sS'x'
F-0.49442719099991594
sg12
(F1.6000000000000001
F0
I0
tp615
sS'z'
I0
sbsg611
I01
sbag573
asg564
I01
sg602
(lp616
I0
asg73
I00
sg12
(ielbow.chemistry.xyzClass
xyzClass
p617
(dp618
g10
I1
sg11
F57.295779513082323
sS'y'
F0
sS'x'
F0
sg12
(F1.6000000000000001
F0
I0
tp619
sS'z'
I0
sbsbag597
asg564
I01
sg602
(lp620
I0
asg73
I00
sg12
(ielbow.chemistry.xyzClass
xyzClass
p621
(dp622
g10
I1
sg11
F57.295779513082323
sS'y'
F1.6653345369377348e-16
sS'x'
F1.6000000000000001
sg12
(F0
F0
I0
tp623
sS'z'
I0
sbsbag591
asS'ring_index'
p624
I1
sg222
S'C'
sg47
S' '
sg223
F12.010999999999999
sS'zmatrix_index'
p625
I5
sg602
g603
sS'y'
F-0.93230279394988336
sS'x'
F-0.62726277304256417
sg224
I0
sg46
I8
sg48
I7
sbasg26
g138
sg210
I5
sg211
Nsg212
g111
sg611
I01
sg33
S'MTN:1:A:???'
p626
sg564
I01
sg29
I0
sg45
I1
sg30
I4
sg31
S'MTN:1:A:'
p627
sg28
F1
sg213
(lp628
sg215
S'A'
sg216
S' C3 '
p629
sg37
I4
sg35
g36
sg217
S'C'
sg218
S'A'
sg38
S'    5'
p630
sg40
g629
sg220
I01
sg42
g569
sg219
g117
sg44
g629
sS'z'
F-0.24898288617987657
sg43
g111
sg221
S''
sg570
I0
sg571
g596
sg624
I1
sg222
S'C'
sg47
S' '
sg223
F12.010999999999999
sg625
I4
sg602
g607
sS'y'
F-0.21971544089932404
sS'x'
F-0.097177356649229996
sg224
I0
sg46
I5
sg48
I4
sba(ielbow.chemistry.AtomClass
AtomClass
p631
(dp632
g7
(ielbow.chemistry.xyzClass
xyzClass
p633
(dp634
g10
I1
sg11
F57.295779513082323
sS'y'
F1.599
sS'x'
F0.29499999999999998
sg12
(F0.29499999999999998
F1.599
F-1.4610000000000001
tp635
sS'z'
F-1.4610000000000001
sbsg14
(ielbow.chemistry.xyzClass
xyzClass
p636
(dp637
g10
I1
sg11
F57.295779513082323
sS'y'
F1.8033034512234309
sS'x'
F1.8183913539372312
sg12
(F1.8183913539372312
F1.8033034512234309
F2.6932021494755691
tp638
sS'z'
F2.6932021494755691
sbsg12
(ielbow.chemistry.xyzClass
xyzClass
p639
(dp640
g10
I0
sg11
F57.295779513082323
sS'y'
F-0.67611177493168007
sS'x'
F0.37379086508846848
sg12
(F0.37379086508846848
F-0.67611177493168007
F1.8915924765385845
tp641
sS'z'
F1.8915924765385845
sbsg21
I1
sg22
(lp642
sg24
S'H2'
p643
sg26
Nsg28
F1
sg29
I0
sg30
I12
sg31
S'MTN:1:A:'
p644
sg33
S'MTN:1:A:???'
p645
sg35
g36
sg37
I16
sg38
S'   13'
p646
sg40
S' H2 '
p647
sg42
S'HCR5'
p648
sg43
g633
sg44
g647
sg45
I1
sg46
I13
sg47
S' '
sS'x'
F0.37379086508846848
sS'z'
F1.8915924765385845
sg48
I12
sg49
F20
sg50
I140711042624760
sg51
S''
sg52
S'MTN'
p649
sg54
S'   13'
p650
sg56
I140711042624760
sg57
(lp651
g93
asg210
I13
sg211
Nsg212
g633
sg213
(lp652
sg215
S'A'
sg216
g647
sg217
S'H'
sg218
S'A'
sg219
g639
sg220
I01
sg221
S''
sg222
S'H'
sg223
F1.0079
sS'y'
F-0.67611177493168007
sg224
I0
sbasg26
g138
sg210
I4
sg211
Nsg212
g95
sg611
I01
sg33
S'MTN:1:A:???'
p653
sg564
I01
sg29
I0
sg45
I1
sg30
I3
sg31
S'MTN:1:A:'
p654
sg28
F1
sg213
(lp655
sg215
S'A'
sg216
S' C2 '
p656
sg37
I3
sg35
g36
sg217
S'C'
sg218
S'A'
sg38
S'    4'
p657
sg40
g656
sg220
I01
sg42
S'CR15'
p658
sg219
g101
sg44
g656
sS'z'
F0.91997756669042485
sg43
g95
sg221
S''
sg570
I1
sg571
g590
sg624
I1
sg222
S'C'
sg47
S' '
sg223
F12.010999999999999
sg625
I3
sg602
g612
sS'y'
F-1.1074084977081424
sS'x'
F0.1652100543533872
sg224
I0
sg46
I4
sg48
I3
sba(ielbow.chemistry.AtomClass
AtomClass
p659
(dp660
g7
(ielbow.chemistry.xyzClass
xyzClass
p661
(dp662
g10
I1
sg11
F57.295779513082323
sS'y'
F1.266
sS'x'
F3.3250000000000002
sg12
(F3.3250000000000002
F1.266
F-1.1180000000000001
tp663
sS'z'
F-1.1180000000000001
sbsg14
(ielbow.chemistry.xyzClass
xyzClass
p664
(dp665
g10
I1
sg11
F57.295779513082323
sS'y'
F-0.51410037186317337
sS'x'
F0.86026227257085197
sg12
(F0.86026227257085197
F-0.51410037186317337
F2.4778385918527879
tp666
sS'z'
F2.4778385918527879
sbsg12
(ielbow.chemistry.xyzClass
xyzClass
p667
(dp668
g10
I1
sg11
F57.295779513082323
sS'y'
F-2.2551233869915772
sS'x'
F-1.7410038283754576
sg12
(F-1.7410038283754576
F-2.2551233869915772
F1.7884045704686857
tp669
sS'z'
F1.7884045704686857
sbsg21
I6
sg22
(lp670
sg24
S'C8'
p671
sg26
g138
sg28
F1
sg29
I0
sg30
I10
sg31
S'MTN:1:A:'
p672
sg33
S'MTN:1:A:???'
p673
sg35
g36
sg37
I10
sg38
S'   11'
p674
sg40
S' C8 '
p675
sg42
g264
sg43
g661
sg44
g675
sg45
I1
sg46
I11
sg47
S' '
sS'x'
F-1.7410038283754576
sS'z'
F1.7884045704686857
sg48
I10
sg49
F20
sg50
I140711042624184
sg51
S''
sg52
S'MTN'
p676
sg54
S'   11'
p677
sg56
I140711042624184
sg57
(lp678
g77
a(ielbow.chemistry.AtomClass
AtomClass
p679
(dp680
g7
(ielbow.chemistry.xyzClass
xyzClass
p681
(dp682
g10
I1
sg11
F57.295779513082323
sS'y'
F0.38600000000000001
sS'x'
F3.3220000000000001
sg12
(F3.3220000000000001
F0.38600000000000001
F-1.762
tp683
sS'z'
F-1.762
sbsg14
(ielbow.chemistry.xyzClass
xyzClass
p684
(dp685
g10
I1
sg11
F57.295779513082323
sS'y'
F-0.5751303132635236
sS'x'
F1.2570213836018387
sg12
(F1.2570213836018387
F-0.5751303132635236
F3.4840274128737589
tp686
sS'z'
F3.4840274128737589
sbsg12
(ielbow.chemistry.xyzClass
xyzClass
p687
(dp688
g10
I0
sg11
F57.295779513082323
sS'y'
F-2.2351594309964105
sS'x'
F-1.3764082530326542
sg12
(F-1.3764082530326542
F-2.2351594309964105
F2.8114283923215222
tp689
sS'z'
F2.8114283923215222
sbsg21
I1
sg22
(lp690
sg24
S'H81'
p691
sg26
Nsg28
F1
sg29
I0
sg30
I21
sg31
S'MTN:1:A:'
p692
sg33
S'MTN:1:A:???'
p693
sg35
g36
sg37
I25
sg38
S'   22'
p694
sg40
S' H81'
p695
sg42
g285
sg43
g681
sg44
g695
sg45
I1
sg46
I22
sg47
S' '
sS'x'
F-1.3764082530326542
sS'z'
F2.8114283923215222
sg48
I21
sg49
F20
sg50
I140711042623320
sg51
S''
sg52
S'MTN'
p696
sg54
S'   22'
p697
sg56
I140711042623320
sg57
(lp698
g659
asg210
I22
sg211
Nsg212
g681
sg213
(lp699
sg215
S'A'
sg216
g695
sg217
S'H'
sg218
S'A'
sg219
g687
sg220
I01
sg221
S''
sg222
S'H'
sg223
F1.0079
sS'y'
F-2.2351594309964105
sg224
I0
sba(ielbow.chemistry.AtomClass
AtomClass
p700
(dp701
g7
(ielbow.chemistry.xyzClass
xyzClass
p702
(dp703
g10
I1
sg11
F57.295779513082323
sS'y'
F2.1640000000000001
sS'x'
F3.234
sg12
(F3.234
F2.1640000000000001
F-1.73
tp704
sS'z'
F-1.73
sbsg14
(ielbow.chemistry.xyzClass
xyzClass
p705
(dp706
g10
I1
sg11
F57.295779513082323
sS'y'
F-1.4971879680453588
sS'x'
F0.53791462516578625
sg12
(F0.53791462516578625
F-1.4971879680453588
F2.156607892936647
tp707
sS'z'
F2.156607892936647
sbsg12
(ielbow.chemistry.xyzClass
xyzClass
p708
(dp709
g10
I0
sg11
F57.295779513082323
sS'y'
F-3.1418447931343705
sS'x'
F-2.3501955649714064
sg12
(F-2.3501955649714064
F-3.1418447931343705
F1.6383494243328933
tp710
sS'z'
F1.6383494243328933
sbsg21
I1
sg22
(lp711
sg24
S'H82'
p712
sg26
Nsg28
F1
sg29
I0
sg30
I22
sg31
S'MTN:1:A:'
p713
sg33
S'MTN:1:A:???'
p714
sg35
g36
sg37
I26
sg38
S'   23'
p715
sg40
S' H82'
p716
sg42
g285
sg43
g702
sg44
g716
sg45
I1
sg46
I23
sg47
S' '
sS'x'
F-2.3501955649714064
sS'z'
F1.6383494243328933
sg48
I22
sg49
F20
sg50
I140711042623464
sg51
S''
sg52
S'MTN'
p717
sg54
S'   23'
p718
sg56
I140711042623464
sg57
(lp719
g659
asg210
I23
sg211
Nsg212
g702
sg213
(lp720
sg215
S'A'
sg216
g716
sg217
S'H'
sg218
S'A'
sg219
g708
sg220
I01
sg221
S''
sg222
S'H'
sg223
F1.0079
sS'y'
F-3.1418447931343705
sg224
I0
sba(ielbow.chemistry.AtomClass
AtomClass
p721
(dp722
g7
(ielbow.chemistry.xyzClass
xyzClass
p723
(dp724
g10
I1
sg11
F57.295779513082323
sS'y'
F1.3029999999999999
sS'x'
F4.2590000000000003
sg12
(F4.2590000000000003
F1.3029999999999999
F-0.55700000000000005
tp725
sS'z'
F-0.55700000000000005
sbsg14
(ielbow.chemistry.xyzClass
xyzClass
p726
(dp727
g10
I1
sg11
F57.295779513082323
sS'y'
F0.16524786768880229
sS'x'
F0.016565567663314629
sg12
(F0.016565567663314629
F0.16524786768880229
F2.4629984763951782
tp728
sS'z'
F2.4629984763951782
sbsg12
(ielbow.chemistry.xyzClass
xyzClass
p729
(dp730
g10
I0
sg11
F57.295779513082323
sS'y'
F-1.3684679868887479
sS'x'
F-2.3395267345600121
sg12
(F-2.3395267345600121
F-1.3684679868887479
F1.5999402678629051
tp731
sS'z'
F1.5999402678629051
sbsg21
I1
sg22
(lp732
sg24
S'H83'
p733
sg26
Nsg28
F1
sg29
I0
sg30
I23
sg31
S'MTN:1:A:'
p734
sg33
S'MTN:1:A:???'
p735
sg35
g36
sg37
I27
sg38
S'   24'
p736
sg40
S' H83'
p737
sg42
g285
sg43
g723
sg44
g737
sg45
I1
sg46
I24
sg47
S' '
sS'x'
F-2.3395267345600121
sS'z'
F1.5999402678629051
sg48
I23
sg49
F20
sg50
I140711042623608
sg51
S''
sg52
S'MTN'
p738
sg54
S'   24'
p739
sg56
I140711042623608
sg57
(lp740
g659
asg210
I24
sg211
Nsg212
g723
sg213
(lp741
sg215
S'A'
sg216
g737
sg217
S'H'
sg218
S'A'
sg219
g729
sg220
I01
sg221
S''
sg222
S'H'
sg223
F1.0079
sS'y'
F-1.3684679868887479
sg224
I0
sbasg210
I11
sg211
Nsg212
g661
sg213
(lp742
sg215
S'A'
sg216
g675
sg217
S'C'
sg218
S'A'
sg219
g667
sg220
I01
sg221
S''
sg222
S'C'
sg223
F12.010999999999999
sS'y'
F-2.2551233869915772
sg224
I0
sba(ielbow.chemistry.AtomClass
AtomClass
p743
(dp744
g7
(ielbow.chemistry.xyzClass
xyzClass
p745
(dp746
g10
I1
sg11
F57.295779513082323
sS'y'
F2.504
sS'x'
F2.0099999999999998
sg12
(F2.0099999999999998
F2.504
F0.627
tp747
sS'z'
F0.627
sbsg14
(ielbow.chemistry.xyzClass
xyzClass
p748
(dp749
g10
I1
sg11
F57.295779513082323
sS'y'
F-0.84991348418378376
sS'x'
F3.2081715598691689
sg12
(F3.2081715598691689
F-0.84991348418378376
F1.6477273110756627
tp750
sS'z'
F1.6477273110756627
sbsg12
(ielbow.chemistry.xyzClass
xyzClass
p751
(dp752
g10
I1
sg11
F57.295779513082323
sS'y'
F-3.4810840563949204
sS'x'
F0.34640229211944051
sg12
(F0.34640229211944051
F-3.4810840563949204
F1.11465754029955
tp753
sS'z'
F1.11465754029955
sbsg21
I6
sg22
(lp754
sg24
S'C9'
p755
sg26
g138
sg28
F1
sg29
I0
sg30
I11
sg31
S'MTN:1:A:'
p756
sg33
S'MTN:1:A:???'
p757
sg35
g36
sg37
I11
sg38
S'   12'
p758
sg40
S' C9 '
p759
sg42
g264
sg43
g745
sg44
g759
sg45
I1
sg46
I12
sg47
S' '
sS'x'
F0.34640229211944051
sS'z'
F1.11465754029955
sg48
I11
sg49
F20
sg50
I140711042625336
sg51
S''
sg52
S'MTN'
p760
sg54
S'   12'
p761
sg56
I140711042625336
sg57
(lp762
g77
a(ielbow.chemistry.AtomClass
AtomClass
p763
(dp764
g7
(ielbow.chemistry.xyzClass
xyzClass
p765
(dp766
g10
I1
sg11
F57.295779513082323
sS'y'
F2.6749999999999998
sS'x'
F2.9100000000000001
sg12
(F2.9100000000000001
F2.6749999999999998
F1.2170000000000001
tp767
sS'z'
F1.2170000000000001
sbsg14
(ielbow.chemistry.xyzClass
xyzClass
p768
(dp769
g10
I1
sg11
F57.295779513082323
sS'y'
F-1.613459667926979
sS'x'
F3.0627378620816907
sg12
(F3.0627378620816907
F-1.613459667926979
F2.4023163742882589
tp770
sS'z'
F2.4023163742882589
sbsg12
(ielbow.chemistry.xyzClass
xyzClass
p771
(dp772
g10
I0
sg11
F57.295779513082323
sS'y'
F-4.2359648771790503
sS'x'
F-0.21647324285696934
sg12
(F-0.21647324285696934
F-4.2359648771790503
F1.6561669849456104
tp773
sS'z'
F1.6561669849456104
sbsg21
I1
sg22
(lp774
sg24
S'H91'
p775
sg26
Nsg28
F1
sg29
I0
sg30
I24
sg31
S'MTN:1:A:'
p776
sg33
S'MTN:1:A:???'
p777
sg35
g36
sg37
I28
sg38
S'   25'
p778
sg40
S' H91'
p779
sg42
g285
sg43
g765
sg44
g779
sg45
I1
sg46
I25
sg47
S' '
sS'x'
F-0.21647324285696934
sS'z'
F1.6561669849456104
sg48
I24
sg49
F20
sg50
I140711042623752
sg51
S''
sg52
S'MTN'
p780
sg54
S'   25'
p781
sg56
I140711042623752
sg57
(lp782
g743
asg210
I25
sg211
Nsg212
g765
sg213
(lp783
sg215
S'A'
sg216
g779
sg217
S'H'
sg218
S'A'
sg219
g771
sg220
I01
sg221
S''
sg222
S'H'
sg223
F1.0079
sS'y'
F-4.2359648771790503
sg224
I0
sba(ielbow.chemistry.AtomClass
AtomClass
p784
(dp785
g7
(ielbow.chemistry.xyzClass
xyzClass
p786
(dp787
g10
I1
sg11
F57.295779513082323
sS'y'
F3.3250000000000002
sS'x'
F1.875
sg12
(F1.875
F3.3250000000000002
F-0.076999999999999999
tp788
sS'z'
F-0.076999999999999999
sbsg14
(ielbow.chemistry.xyzClass
xyzClass
p789
(dp790
g10
I1
sg11
F57.295779513082323
sS'y'
F-1.3198227407264496
sS'x'
F3.4149667007497149
sg12
(F3.4149667007497149
F-1.3198227407264496
F0.69379888094858311
tp791
sS'z'
F0.69379888094858311
sbsg12
(ielbow.chemistry.xyzClass
xyzClass
p792
(dp793
g10
I0
sg11
F57.295779513082323
sS'y'
F-3.8988145208451259
sS'x'
F0.70430024803411717
sg12
(F0.70430024803411717
F-3.8988145208451259
F0.17800544459734402
tp794
sS'z'
F0.17800544459734402
sbsg21
I1
sg22
(lp795
sg24
S'H92'
p796
sg26
Nsg28
F1
sg29
I0
sg30
I25
sg31
S'MTN:1:A:'
p797
sg33
S'MTN:1:A:???'
p798
sg35
g36
sg37
I29
sg38
S'   26'
p799
sg40
S' H92'
p800
sg42
g285
sg43
g786
sg44
g800
sg45
I1
sg46
I26
sg47
S' '
sS'x'
F0.70430024803411717
sS'z'
F0.17800544459734402
sg48
I25
sg49
F20
sg50
I140711042623896
sg51
S''
sg52
S'MTN'
p801
sg54
S'   26'
p802
sg56
I140711042623896
sg57
(lp803
g743
asg210
I26
sg211
Nsg212
g786
sg213
(lp804
sg215
S'A'
sg216
g800
sg217
S'H'
sg218
S'A'
sg219
g792
sg220
I01
sg221
S''
sg222
S'H'
sg223
F1.0079
sS'y'
F-3.8988145208451259
sg224
I0
sba(ielbow.chemistry.AtomClass
AtomClass
p805
(dp806
g7
(ielbow.chemistry.xyzClass
xyzClass
p807
(dp808
g10
I1
sg11
F57.295779513082323
sS'y'
F2.4470000000000001
sS'x'
F1.1459999999999999
sg12
(F1.1459999999999999
F2.4470000000000001
F1.2889999999999999
tp809
sS'z'
F1.2889999999999999
sbsg14
(ielbow.chemistry.xyzClass
xyzClass
p810
(dp811
g10
I1
sg11
F57.295779513082323
sS'y'
F-0.21951168726419701
sS'x'
F4.0433036990820135
sg12
(F4.0433036990820135
F-0.21951168726419701
F1.9282736957883038
tp812
sS'z'
F1.9282736957883038
sbsg12
(ielbow.chemistry.xyzClass
xyzClass
p813
(dp814
g10
I0
sg11
F57.295779513082323
sS'y'
F-3.1605508182309769
sS'x'
F1.1929475381888737
sg12
(F1.1929475381888737
F-3.1605508182309769
F1.715095559964422
tp815
sS'z'
F1.715095559964422
sbsg21
I1
sg22
(lp816
sg24
S'H93'
p817
sg26
Nsg28
F1
sg29
I0
sg30
I26
sg31
S'MTN:1:A:'
p818
sg33
S'MTN:1:A:???'
p819
sg35
g36
sg37
I30
sg38
S'   27'
p820
sg40
S' H93'
p821
sg42
g285
sg43
g807
sg44
g821
sg45
I1
sg46
I27
sg47
S' '
sS'x'
F1.1929475381888737
sS'z'
F1.715095559964422
sg48
I26
sg49
F20
sg50
I140711042691728
sg51
S''
sg52
S'MTN'
p822
sg54
S'   27'
p823
sg56
I140711042691728
sg57
(lp824
g743
asg210
I27
sg211
Nsg212
g807
sg213
(lp825
sg215
S'A'
sg216
g821
sg217
S'H'
sg218
S'A'
sg219
g813
sg220
I01
sg221
S''
sg222
S'H'
sg223
F1.0079
sS'y'
F-3.1605508182309769
sg224
I0
sbasg210
I12
sg211
Nsg212
g745
sg213
(lp826
sg215
S'A'
sg216
g759
sg217
S'C'
sg218
S'A'
sg219
g751
sg220
I01
sg221
S''
sg222
S'C'
sg223
F12.010999999999999
sS'y'
F-3.4810840563949204
sg224
I0
sbasg26
g138
sg210
I3
sg211
Nsg212
g79
sg33
S'MTN:1:A:???'
p827
sg564
I01
sg29
I0
sg45
I1
sg30
I2
sg31
S'MTN:1:A:'
p828
sg28
F1
sg213
(lp829
sg215
S'A'
sg216
S' C1 '
p830
sg37
I2
sg35
g36
sg217
S'C'
sg218
S'A'
sg38
S'    3'
p831
sg40
g830
sg220
I01
sg42
g569
sg219
g85
sg44
g830
sS'z'
F0.82602072277338379
sg43
g79
sg221
S''
sg570
I0
sg571
g584
sg624
I1
sg222
S'C'
sg47
S' '
sg223
F12.010999999999999
sg625
I2
sg602
g616
sS'y'
F-2.2830989076132044
sS'x'
F-0.55561439360754372
sg224
I0
sg46
I3
sg48
I2
sbag379
asg26
(I1
I2
tp832
sg210
I2
sg211
Nsg212
g61
sg33
S'MTN:1:A:???'
p833
sg564
I01
sg29
I0
sg45
I1
sg30
I1
sg31
S'MTN:1:A:'
p834
sg28
F1
sg213
(lp835
sg215
S'A'
sg216
S' N1 '
p836
sg37
I1
sg35
g36
sg217
S'N'
sg218
S'A'
sg38
S'    2'
p837
sg40
g836
sg220
I01
sg42
S'NR5'
p838
sg219
g67
sg44
g836
sS'z'
F-0.68205618918304045
sg43
g61
sg221
S''
sg570
I0
sg571
g578
sg624
I1
sg222
S'N'
sg47
S' '
sg223
F14.0067
sg625
I1
sg602
g620
sS'y'
F-2.3297997469173795
sS'x'
F-1.0698007318265774
sg224
I0
sg46
I2
sg48
I1
sbasg210
I1
sg211
Nsg212
g8
sg213
(lp839
sg215
S'A'
sg216
g41
sg217
S'O'
sg218
S'A'
sg219
g18
sg220
I01
sg221
S''
sg222
S'O'
sg223
F15.9994
sS'y'
F-2.4263141443948602
sg224
I0
sbag59
ag77
ag93
ag109
ag125
ag147
ag379
ag395
ag479
ag659
ag743
ag631
ag335
ag357
ag415
ag436
ag457
ag499
ag520
ag541
ag679
ag700
ag721
ag763
ag784
ag805
ag169
ag189
ag225
ag247
ag268
ag290
ag311
atRp840
(dp841
S'CIF_ligand_type'
p842
S'ligand'
p843
sS'original_ring_class'
p844
(lp845
g1
(celbow.chemistry.RingClass
RingClass
p846
g3
(lp847
(lp848
(ielbow.chemistry.RingClass
empty
p849
(dp850
g14
(ielbow.chemistry.xyzClass
xyzClass
p851
(dp852
g10
I0
sg11
F57.295779513082323
sS'y'
F-1.1011055363769386
sS'x'
F0.80000000000000004
sg12
g577
sS'z'
F0
sbsg210
I2
sg217
S'N'
sg12
(ielbow.chemistry.xyzClass
xyzClass
p853
(dp854
g10
I1
sg11
F57.295779513082323
sS'y'
F1.6653345369377348e-16
sS'x'
F1.6000000000000001
sg12
g623
sS'z'
I0
sbsg7
(ielbow.chemistry.xyzClass
xyzClass
p855
(dp856
g10
I1
sg11
F57.295779513082323
sS'y'
F0.058999999999999997
sS'x'
F2.3319999999999999
sg12
g63
sS'z'
F0.79700000000000004
sbsba(ielbow.chemistry.RingClass
empty
p857
(dp858
g14
(ielbow.chemistry.xyzClass
xyzClass
p859
(dp860
g10
I0
sg11
F57.295779513082323
sS'y'
F0.42058488969530705
sS'x'
F1.2944271909999159
sg12
g601
sS'z'
F0
sbsg210
I8
sg217
S'C'
sg12
(ielbow.chemistry.xyzClass
xyzClass
p861
(dp862
g10
I1
sg11
F57.295779513082323
sS'y'
F1.5216904260722459
sS'x'
F2.0944271909999159
sg12
g606
sS'z'
I0
sbsg7
(ielbow.chemistry.xyzClass
xyzClass
p863
(dp864
g10
I1
sg11
F57.295779513082323
sS'y'
F-1.0489999999999999
sS'x'
F1.6140000000000001
sg12
g383
sS'z'
F0.123
sbsba(ielbow.chemistry.RingClass
empty
p865
(dp866
g14
(ielbow.chemistry.xyzClass
xyzClass
p867
(dp868
g10
I0
sg11
F57.295779513082323
sS'y'
F1.3610412933632641
sS'x'
F-2.2204460492503131e-16
sg12
g595
sS'z'
F0
sbsg210
I5
sg217
S'C'
sg12
(ielbow.chemistry.xyzClass
xyzClass
p869
(dp870
g10
I1
sg11
F57.295779513082323
sS'y'
F2.4621468297402029
sS'x'
F0.79999999999999982
sg12
g610
sS'z'
I0
sbsg7
(ielbow.chemistry.xyzClass
xyzClass
p871
(dp872
g10
I1
sg11
F57.295779513082323
sS'y'
F-0.38100000000000001
sS'x'
F0.56799999999999995
sg12
g113
sS'z'
F-0.73999999999999999
sbsba(ielbow.chemistry.RingClass
empty
p873
(dp874
g14
(ielbow.chemistry.xyzClass
xyzClass
p875
(dp876
g10
I0
sg11
F57.295779513082323
sS'y'
F0.42058488969530683
sS'x'
F-1.2944271909999161
sg12
g589
sS'z'
F0
sbsg210
I4
sg217
S'C'
sg12
(ielbow.chemistry.xyzClass
xyzClass
p877
(dp878
g10
I1
sg11
F57.295779513082323
sS'y'
F1.5216904260722457
sS'x'
F-0.49442719099991594
sg12
g615
sS'z'
I0
sbsg7
(ielbow.chemistry.xyzClass
xyzClass
p879
(dp880
g10
I1
sg11
F57.295779513082323
sS'y'
F0.88400000000000001
sS'x'
F0.87
sg12
g97
sS'z'
F-0.89100000000000001
sbsba(ielbow.chemistry.RingClass
empty
p881
(dp882
g14
(ielbow.chemistry.xyzClass
xyzClass
p883
(dp884
g10
I0
sg11
F57.295779513082323
sS'y'
F-1.1011055363769389
sS'x'
F-0.80000000000000004
sg12
g583
sS'z'
F0
sbsg210
I3
sg217
S'C'
sg12
(ielbow.chemistry.xyzClass
xyzClass
p885
(dp886
g10
I1
sg11
F57.295779513082323
sS'y'
F0
sS'x'
F0
sg12
g619
sS'z'
I0
sbsg7
(ielbow.chemistry.xyzClass
xyzClass
p887
(dp888
g10
I1
sg11
F57.295779513082323
sS'y'
F1.1890000000000001
sS'x'
F2.1480000000000001
sg12
g81
sS'z'
F-0.14399999999999999
sbsbaatRp889
(dp890
S'use_cctbx'
p891
I01
sS'RestraintWeights'
p892
(dp893
S'LoopClass'
p894
(dp895
S'angle'
p896
F0.25
sS'bond'
p897
I50
ssS'GetCCTBXRestraints'
p898
(dp899
g896
F1
sg897
F100
ssS'ZMatrixClass'
p900
(dp901
g896
I10
sg897
F100
ssS'AdjustRestraintClass'
p902
(dp903
S'ring_planar'
p904
F0.10000000000000001
sS'aromatic_bond'
p905
F100
sg896
F1.5
sg221
F50
sS'loose_angle'
p906
F0.25
sS'non_ring_planar'
p907
F0.20000000000000001
ssS'RingClass'
p908
(dp909
S'flatness'
p910
F10
sg896
F2
sS'chair_boat'
p911
F1
sS'non_aromatic'
p912
F10
sg897
F200
ssS'ChiralClass'
p913
(dp914
g897
F100
sssS'allow_boat_conformation'
p915
I00
sS'ignore_list'
p916
(lp917
sS'rejected'
p918
(lp919
sS'ignore'
p920
(lp921
sS'edges'
p922
(dp923
sS'coordinates'
p924
(lp925
F0
aF0
aF0
aF0
aF0
aF0
asS'UseRestraintWeights'
p926
I01
sS'UseRestraintValues'
p927
I01
sS'min_iter_rings'
p928
I7
sS'RestraintValues'
p929
(dp930
g908
(dp931
g896
(dp932
I3
F60
sI4
F90
sI5
F106
sI6
F113
ssS'dihedral'
p933
(dp934
I5
(lp935
F25
aI10
asI6
(lp936
F55
aI1
assssbasS'energy'
p937
F899.4829924572133
sS'chiral_restraint'
p938
(dp939
sS'ligand_type'
p940
S'NON-POLYMER'
p941
sS'OutputHeaderData'
p942
(dp943
S'qm_method'
p944
S'AM1'
p945
sS'random_seed'
p946
S'3628800'
p947
sS'qm_basis'
p948
g945
sS'file'
p949
S'/home/liuyoujia/phenix-1.17rc2-3615/modules/chem_data/chemical_components/m/data_MTN.cif'
p950
ssS'OriginalFormat'
p951
g1
(celbow.formats.FormatClass
FormatClass
p952
c__builtin__
dict
p953
(dp954
S'atom_names'
p955
I01
sS'smiles'
p956
I00
sS'bond_connections_optional'
p957
I00
sS'bond_orders'
p958
I01
sS'bond_connections'
p959
I01
sS'xyz_coordinates'
p960
I00
stRp961
(dp962
S'format'
p963
S'CHEMICAL COMPONENTS'
p964
sbsS'WriteCIF2String_defaults'
p965
(lp966
I00
aI01
aS'MTN'
p967
aS''
aI00
aI01
aI00
aS'retain'
p968
aI00
aI01
aI01
a(I4
I3
I2
tp969
aI00
aI00
aNaI01
a(lp970
a(lp971
a(lp972
a(lp973
aI00
aI00
asS'chiral_class'
p974
(dp975
sS'ring_atom_lists'
p976
(lp977
(lp978
S'2'
aS'8'
aS'5'
aS'4'
aS'3'
aasS'invisible_plane'
p979
g1
(celbow.chemistry.PeptideClass
PeptideClass
p980
g3
(ltRp981
(dp982
S'restraint_class'
p983
g1
(celbow.cctbx_api.RestraintClass
RestraintClass
p984
g953
(dtRp985
(dp986
S'type'
p987
NsS'link'
p988
(dp989
sS'overwrite'
p990
I00
sS'hydrogens'
p991
(lp992
sS'restraint_type'
p993
(dp994
sbsS'dihedral_const_var_type'
p995
(lp996
sbsS'rotation_step'
p997
I10
sg892
(dp998
g894
(dp999
g896
F0.25
sg897
I50
ssg898
(dp1000
g896
F1
sg897
F100
ssg900
(dp1001
g896
I10
sg897
F100
ssg902
(dp1002
g904
F0.10000000000000001
sg905
F100
sg896
F1.5
sg221
F50
sg906
F0.25
sg907
F0.20000000000000001
ssg908
(dp1003
g910
F10
sg896
F2
sg912
F10
sg911
F1
sg897
F200
ssg913
(dp1004
g897
F100
sssS'CIF_name'
p1005
S'Unknown'
p1006
sS'EnergyTerms'
p1007
NsS'CIF_three_letter_code'
p1008
S'MTN'
p1009
sS'RotationSubUnits'
p1010
(dp1011
(I5
I6
tp1012
(lp1013
(ielbow.utilities.sets
Set
p1014
(dp1015
S'dict'
p1016
(dp1017
g59
I1
sg743
I1
sg499
I1
sg700
I1
sg436
I1
sg520
I1
sg77
I1
sg479
I1
sg379
I1
sg784
I1
sg721
I1
sg763
I1
sg631
I1
sg415
I1
sg5
I1
sg457
I1
sg93
I1
sg679
I1
sg659
I1
sg805
I1
sg395
I1
sg541
I1
ssba(ielbow.utilities.sets
Set
p1018
(dp1019
g1016
(dp1020
g335
I1
sg311
I1
sg290
I1
sg268
I1
sg247
I1
sg189
I1
sg169
I1
sg357
I1
sg147
I1
sg225
I1
ssbas(I7
I28
tp1021
(lp1022
(ielbow.utilities.sets
Set
p1023
(dp1024
g1016
(dp1025
g763
I1
sg59
I1
sg125
I1
sg379
I1
sg743
I1
sg499
I1
sg700
I1
sg77
I1
sg436
I1
sg520
I1
sg631
I1
sg479
I1
sg335
I1
sg784
I1
sg721
I1
sg109
I1
sg357
I1
sg415
I1
sg5
I1
sg457
I1
sg93
I1
sg679
I1
sg659
I1
sg805
I1
sg395
I1
sg541
I1
ssba(ielbow.utilities.sets
Set
p1026
(dp1027
g1016
(dp1028
g311
I1
sg290
I1
sg268
I1
sg247
I1
sg189
I1
sg225
I1
ssbas(I6
I7
tp1029
(lp1030
(ielbow.utilities.sets
Set
p1031
(dp1032
g1016
(dp1033
g763
I1
sg59
I1
sg379
I1
sg743
I1
sg499
I1
sg700
I1
sg77
I1
sg436
I1
sg520
I1
sg631
I1
sg479
I1
sg335
I1
sg784
I1
sg721
I1
sg109
I1
sg357
I1
sg415
I1
sg5
I1
sg457
I1
sg93
I1
sg679
I1
sg659
I1
sg805
I1
sg395
I1
sg541
I1
ssba(ielbow.utilities.sets
Set
p1034
(dp1035
g1016
(dp1036
g311
I1
sg290
I1
sg268
I1
sg247
I1
sg189
I1
sg169
I1
sg225
I1
ssbassS'filename_preamble'
p1037
g967
sS'ring_restraint'
p1038
g1
(celbow.chemistry.RingTopologyMixins
empty_dict
p1039
g953
(dp1040
I1
g1
(g984
g953
(dp1041
(I8
I2
I3
tp1042
(lp1043
F106
aF10
as(I5
I8
I2
I3
tp1044
(lp1045
F25
aF1
aI10
a(F-55
tp1046
asI2
(F1.6000000000000001
F1.6653345369377348e-16
I0
tp1047
sI3
(F0
F0
I0
tp1048
sI4
(F-0.49442719099991594
F1.5216904260722457
I0
tp1049
s(I8
I2
tp1050
(lp1051
F1.451533
aF200
as(I5
I8
I2
tp1052
(lp1053
F106
aF10
asI8
(F2.0944271909999159
F1.5216904260722459
I0
tp1054
s(I8
I2
I3
I4
tp1055
(lp1056
F25
aF1
aI10
ag1046
as(I2
I3
tp1057
(lp1058
F1.451533
aF200
as(I5
I8
tp1059
(lp1060
F1.527126
aF200
asI5
(F0.79999999999999982
F2.4621468297402029
I0
tp1061
s(I4
I5
I8
tp1062
(lp1063
F106
aF10
as(I4
I5
tp1064
(lp1065
F1.527126
aF200
as(I3
I4
I5
tp1066
(lp1067
F106
aF10
as(I2
I3
I4
tp1068
(lp1069
F106
aF10
as(I3
I4
tp1070
(lp1071
F1.527126
aF200
astRp1072
(dp1073
g987
Nsg988
(dp1074
I8
I4
sI2
I0
sI3
I1
sI4
I2
sI5
I3
ssg990
I00
sg991
(lp1075
sg993
(dp1076
sbstRp1077
sS'loop_class'
p1078
(lp1079
sS'CIF_id'
p1080
S'MTN'
p1081
sg29
I0
sS'residue_name'
p1082
g967
sS'temp_pdb'
p1083
S'/tmp/tmp5h84kj'
p1084
sS'ring_dihedrals'
p1085
(lp1086
sS'maximum_bond_length'
p1087
F3
sS'peptide_class'
p1088
g1
(g980
g3
(ltRp1089
(dp1090
g983
g1
(g984
g953
(dtRp1091
(dp1092
g987
Nsg988
(dp1093
sg990
I00
sg991
(lp1094
sg993
(dp1095
sbsg995
(lp1096
sbsg929
(dp1097
g908
(dp1098
g896
(dp1099
I3
F60
sI4
F90
sI5
F106
sI6
F113
ssg933
(dp1100
I5
(lp1101
F25
aI10
asI6
(lp1102
F55
aI1
assssS'molecule_number'
p1103
I0
sS'ring_zmatrix'
p1104
(dp1105
I1
g1
(celbow.chemistry.ZMatrixClass
ZMatrixClass
p1106
g3
(lp1107
g1
(celbow.chemistry.ZMatrixClass
ZMatrixLine
p1108
g3
(lp1109
g59
ag5
aF1.4024580221241159
atRp1110
(dp1111
S'added_atom'
p1112
I01
sS'variable_set'
p1113
I01
sS'angle_index'
p1114
I4
sS'bond_index'
p1115
I2
sS'dihedral_index'
p1116
I6
sS'variable'
p1117
(lp1118
I00
aI00
aI00
asS'ring'
p1119
I01
sS'equil'
p1120
F1.4024580221241159
sbag1
(g1108
g3
(lp1121
g77
ag59
aF1.6263510907435108
ag5
aF109.47122083986793
atRp1122
(dp1123
g1112
I01
sg1113
I01
sg1114
I4
sg1115
I2
sg1116
I6
sg1117
(lp1124
I00
aI00
aI00
asg1119
I01
sg1120
F1.6263510907435108
sbag1
(g1108
g3
(lp1125
g93
ag77
aF1.390437117667124
ag59
aF104.89665056934284
ag5
aF-97.679817220058979
atRp1126
(dp1127
g1112
I01
sg1113
I01
sg1114
I4
sg1115
I2
sg1116
I6
sg1117
(lp1128
I00
aI00
aI00
asg1119
I01
sg1120
F1.390437117667124
sbag1
(g1108
g3
(lp1129
g109
ag93
aF1.4392669165111724
ag77
aF110.69034815232368
ag59
aI360
atRp1130
(dp1131
g1112
I01
sg1113
I01
sg1114
I4
sg1115
I2
sg1116
I6
sg1117
(lp1132
I00
aI00
aI00
asg1119
I01
sg1120
F1.4392669165111724
sbag1
(g1108
g3
(lp1133
g379
ag59
aF1.5034993685086306
ag77
aF104.7991449508054
ag93
aI0
atRp1134
(dp1135
g1112
I01
sg1113
I01
sg1114
I4
sg1115
I2
sg1116
I6
sg1117
(lp1136
I00
aI00
aI00
asg1119
I01
sg1120
F1.5034993685086306
sbatRp1137
(dp1138
g891
I01
sg892
g998
sS'parent'
p1139
g840
sS'bonds'
p1140
g1
(celbow.chemistry.InternalCoordinateListClass
InternalCoordinateListClass
p1141
g3
(lp1142
g1
(celbow.chemistry.BondClass
BondClass
p1143
g3
(lp1144
g5
ag59
atRp1145
(dp1146
g1120
F1.402458
sS'max_atoms'
p1147
I2
sg217
S'-'
sS'symbols'
p1148
(lp1149
sS'restrain'
p1150
I00
sS'input_order'
p1151
I1
sS'order'
p1152
I1
sS'neutron'
p1153
F1.4024579648411255
sbag1
(g1143
g3
(lp1154
g59
ag77
atRp1155
(dp1156
g1120
F1.451533
sg1147
I2
sg217
S'-'
sg1148
g1149
sg1150
I00
sg1151
I1
sg1152
I1
sg1153
F1.5940089495290912
sbag1
(g1143
g3
(lp1157
g59
ag379
atRp1158
(dp1159
g1120
F1.451533
sg1147
I2
sg217
S'-'
sg1148
g1149
sg1150
I00
sg1151
I1
sg1152
I1
sg1153
F1.5940090740478472
sbag1
(g1143
g3
(lp1160
g77
ag93
atRp1161
(dp1162
g1120
F1.527126
sg1147
I2
sg217
S'-'
sg1148
g1149
sg1150
I00
sg1151
I1
sg1152
I1
sg1153
F1.382267598274576
sbag1
(g1143
g3
(lp1163
g77
ag659
atRp1164
(dp1165
g1120
F1.527126
sg1147
I2
sg217
S'-'
sg1148
g1149
sg1150
I00
sg1151
I1
sg1152
I1
sg1153
F1.5271258664950509
sbag1
(g1143
g3
(lp1166
g77
ag743
atRp1167
(dp1168
g1120
F1.527126
sg1147
I2
sg217
S'-'
sg1148
g1149
sg1150
I00
sg1151
I1
sg1152
I1
sg1153
F1.527125970725099
sbag1
(g1143
g3
(lp1169
g93
ag109
atRp1170
(dp1171
g1120
F1.3165819999999999
sg1147
I2
sg217
S'='
sg1148
g1149
sg1150
I00
sg1151
I2
sg1152
I2
sg1153
F1.4910783537205483
sbag1
(g1143
g3
(lp1172
g93
ag631
atRp1173
(dp1174
g1120
F0.93004757715679376
sg1147
I2
sg217
S'-'
sg1148
g1149
sg1150
I00
sg1151
I1
sg1152
I1
sg1153
F1.0860000000000001
sbag1
(g1143
g3
(lp1175
g109
ag125
atRp1176
(dp1177
g1120
F1.527126
sg1147
I2
sg217
S'-'
sg1148
g1149
sg1150
I00
sg1151
I1
sg1152
I1
sg1153
F1.5271258278904323
sbag1
(g1143
g3
(lp1178
g109
ag379
atRp1179
(dp1180
g1120
F1.527126
sg1147
I2
sg217
S'-'
sg1148
g1149
sg1150
I00
sg1151
I1
sg1152
I1
sg1153
F1.3822675538045539
sbag1
(g1143
g3
(lp1181
g125
ag147
atRp1182
(dp1183
g1120
F1.816344
sg1147
I2
sg217
S'-'
sg1148
g1149
sg1150
I00
sg1151
I1
sg1152
I1
sg1153
F1.8163436012338958
sbag1
(g1143
g3
(lp1184
g125
ag335
atRp1185
(dp1186
g1120
F0.93861155116376238
sg1147
I2
sg217
S'-'
sg1148
g1149
sg1150
I00
sg1151
I1
sg1152
I1
sg1153
F1.0960000000000001
sbag1
(g1143
g3
(lp1187
g125
ag357
atRp1188
(dp1189
g1120
F0.93861155116376238
sg1147
I2
sg217
S'-'
sg1148
g1149
sg1150
I00
sg1151
I1
sg1152
I1
sg1153
F1.0960000000000001
sbag1
(g1143
g3
(lp1190
g379
ag395
atRp1191
(dp1192
g1120
F1.527126
sg1147
I2
sg217
S'-'
sg1148
g1149
sg1150
I00
sg1151
I1
sg1152
I1
sg1153
F1.52712593466734
sbag1
(g1143
g3
(lp1193
g379
ag479
atRp1194
(dp1195
g1120
F1.527126
sg1147
I2
sg217
S'-'
sg1148
g1149
sg1150
I00
sg1151
I1
sg1152
I1
sg1153
F1.5271258053371408
sbag1
(g1143
g3
(lp1196
g395
ag415
atRp1197
(dp1198
g1120
F0.93861155116376238
sg1147
I2
sg217
S'-'
sg1148
g1149
sg1150
I00
sg1151
I1
sg1152
I1
sg1153
F1.0960000000000001
sbag1
(g1143
g3
(lp1199
g395
ag436
atRp1200
(dp1201
g1120
F0.93861155116376238
sg1147
I2
sg217
S'-'
sg1148
g1149
sg1150
I00
sg1151
I1
sg1152
I1
sg1153
F1.0960000000000001
sbag1
(g1143
g3
(lp1202
g395
ag457
atRp1203
(dp1204
g1120
F0.93861155116376238
sg1147
I2
sg217
S'-'
sg1148
g1149
sg1150
I00
sg1151
I1
sg1152
I1
sg1153
F1.0960000000000001
sbag1
(g1143
g3
(lp1205
g479
ag499
atRp1206
(dp1207
g1120
F0.93861155116376238
sg1147
I2
sg217
S'-'
sg1148
g1149
sg1150
I00
sg1151
I1
sg1152
I1
sg1153
F1.0960000000000001
sbag1
(g1143
g3
(lp1208
g479
ag520
atRp1209
(dp1210
g1120
F0.93861155116376238
sg1147
I2
sg217
S'-'
sg1148
g1149
sg1150
I00
sg1151
I1
sg1152
I1
sg1153
F1.0960000000000001
sbag1
(g1143
g3
(lp1211
g479
ag541
atRp1212
(dp1213
g1120
F0.93861155116376238
sg1147
I2
sg217
S'-'
sg1148
g1149
sg1150
I00
sg1151
I1
sg1152
I1
sg1153
F1.0960000000000001
sbag1
(g1143
g3
(lp1214
g659
ag679
atRp1215
(dp1216
g1120
F0.93861155116376238
sg1147
I2
sg217
S'-'
sg1148
g1149
sg1150
I00
sg1151
I1
sg1152
I1
sg1153
F1.0960000000000001
sbag1
(g1143
g3
(lp1217
g659
ag700
atRp1218
(dp1219
g1120
F0.93861155116376238
sg1147
I2
sg217
S'-'
sg1148
g1149
sg1150
I00
sg1151
I1
sg1152
I1
sg1153
F1.0960000000000001
sbag1
(g1143
g3
(lp1220
g659
ag721
atRp1221
(dp1222
g1120
F0.93861155116376238
sg1147
I2
sg217
S'-'
sg1148
g1149
sg1150
I00
sg1151
I1
sg1152
I1
sg1153
F1.0960000000000001
sbag1
(g1143
g3
(lp1223
g743
ag763
atRp1224
(dp1225
g1120
F0.93861155116376238
sg1147
I2
sg217
S'-'
sg1148
g1149
sg1150
I00
sg1151
I1
sg1152
I1
sg1153
F1.0960000000000001
sbag1
(g1143
g3
(lp1226
g743
ag784
atRp1227
(dp1228
g1120
F0.93861155116376238
sg1147
I2
sg217
S'-'
sg1148
g1149
sg1150
I00
sg1151
I1
sg1152
I1
sg1153
F1.0960000000000001
sbag1
(g1143
g3
(lp1229
g743
ag805
atRp1230
(dp1231
g1120
F0.93861155116376238
sg1147
I2
sg217
S'-'
sg1148
g1149
sg1150
I00
sg1151
I1
sg1152
I1
sg1153
F1.0960000000000001
sbag1
(g1143
g3
(lp1232
g147
ag169
atRp1233
(dp1234
g1120
F2.1006420000000001
sg1147
I2
sg217
S'-'
sg1148
g1149
sg1150
I00
sg1151
I1
sg1152
I1
sg1153
F2.1006418543197625
sbag1
(g1143
g3
(lp1235
g169
ag189
atRp1236
(dp1237
g1120
F1.464664
sg1147
I2
sg217
S'='
sg1148
g1149
sg1150
I00
sg1151
I2
sg1152
I2
sg1153
F1.4646639060606597
sbag1
(g1143
g3
(lp1238
g169
ag225
atRp1239
(dp1240
g1120
F1.464664
sg1147
I2
sg217
S'='
sg1148
g1149
sg1150
I00
sg1151
I2
sg1152
I2
sg1153
F1.4646640327200295
sbag1
(g1143
g3
(lp1241
g169
ag247
atRp1242
(dp1243
g1120
F1.816344
sg1147
I2
sg217
S'-'
sg1148
g1149
sg1150
I00
sg1151
I1
sg1152
I1
sg1153
F1.8163437944762124
sbag1
(g1143
g3
(lp1244
g247
ag268
atRp1245
(dp1246
g1120
F0.93861155116376238
sg1147
I2
sg217
S'-'
sg1148
g1149
sg1150
I00
sg1151
I1
sg1152
I1
sg1153
F1.0960000000000001
sbag1
(g1143
g3
(lp1247
g247
ag290
atRp1248
(dp1249
g1120
F0.93861155116376238
sg1147
I2
sg217
S'-'
sg1148
g1149
sg1150
I00
sg1151
I1
sg1152
I1
sg1153
F1.0960000000000001
sbag1
(g1143
g3
(lp1250
g247
ag311
atRp1251
(dp1252
g1120
F0.93861155116376238
sg1147
I2
sg217
S'-'
sg1148
g1149
sg1150
I00
sg1151
I1
sg1152
I1
sg1153
F1.0960000000000001
sbatRp1253
sg926
I01
sS'atoms'
p1254
(lp1255
g59
ag77
ag93
ag109
ag379
asg983
g1072
sS'angles'
p1256
g1
(g1141
g3
(lp1257
g1
(celbow.chemistry.AngleClass
AngleClass
p1258
g3
(lp1259
g77
ag59
ag5
atRp1260
(dp1261
g1148
(lp1262
S'-'
aS'-'
asg1150
I01
sg1120
F109.47122063449069
sbag1
(g1258
g3
(lp1263
g379
ag59
ag5
atRp1264
(dp1265
g1148
(lp1266
S'-'
aS'-'
asg1150
I01
sg1120
F109.47122063449069
sbag1
(g1258
g3
(lp1267
g93
ag77
ag59
atRp1268
(dp1269
g1148
(lp1270
S'-'
aS'-'
asg1150
I01
sbag1
(g1258
g3
(lp1271
g659
ag77
ag59
atRp1272
(dp1273
g1148
(lp1274
S'-'
aS'-'
asg1150
I01
sg1120
F109.47122063449069
sbag1
(g1258
g3
(lp1275
g743
ag77
ag59
atRp1276
(dp1277
g1148
(lp1278
S'-'
aS'-'
asg1150
I01
sg1120
F109.47122063449069
sbag1
(g1258
g3
(lp1279
g109
ag379
ag59
atRp1280
(dp1281
g1148
(lp1282
S'-'
aS'-'
asg1150
I01
sbag1
(g1258
g3
(lp1283
g395
ag379
ag59
atRp1284
(dp1285
g1148
(lp1286
S'-'
aS'-'
asg1150
I01
sg1120
F109.47122063449069
sbag1
(g1258
g3
(lp1287
g479
ag379
ag59
atRp1288
(dp1289
g1148
(lp1290
S'-'
aS'-'
asg1150
I01
sg1120
F109.47122063449069
sbag1
(g1258
g3
(lp1291
g379
ag59
ag77
atRp1292
(dp1293
g1148
(lp1294
S'-'
aS'-'
asg1150
I01
sg1120
F109.47122063449069
sbag1
(g1258
g3
(lp1295
g109
ag93
ag77
atRp1296
(dp1297
g1148
(lp1298
S'='
aS'-'
asg1150
I01
sg1120
F120
sbag1
(g1258
g3
(lp1299
g631
ag93
ag77
atRp1300
(dp1301
g1148
(lp1302
S'-'
aS'-'
asg1150
I01
sg1120
F144
sbag1
(g1258
g3
(lp1303
g679
ag659
ag77
atRp1304
(dp1305
g1148
(lp1306
S'-'
aS'-'
asg1150
I01
sg1120
F109.47122063449069
sbag1
(g1258
g3
(lp1307
g700
ag659
ag77
atRp1308
(dp1309
g1148
(lp1310
S'-'
aS'-'
asg1150
I01
sg1120
F109.47122063449069
sbag1
(g1258
g3
(lp1311
g721
ag659
ag77
atRp1312
(dp1313
g1148
(lp1314
S'-'
aS'-'
asg1150
I01
sg1120
F109.47122063449069
sbag1
(g1258
g3
(lp1315
g763
ag743
ag77
atRp1316
(dp1317
g1148
(lp1318
S'-'
aS'-'
asg1150
I01
sg1120
F109.47122063449069
sbag1
(g1258
g3
(lp1319
g784
ag743
ag77
atRp1320
(dp1321
g1148
(lp1322
S'-'
aS'-'
asg1150
I01
sg1120
F109.47122063449069
sbag1
(g1258
g3
(lp1323
g805
ag743
ag77
atRp1324
(dp1325
g1148
(lp1326
S'-'
aS'-'
asg1150
I01
sg1120
F109.47122063449069
sbag1
(g1258
g3
(lp1327
g659
ag77
ag93
atRp1328
(dp1329
g1148
(lp1330
S'-'
aS'-'
asg1150
I01
sg1120
F109.47122063449069
sbag1
(g1258
g3
(lp1331
g743
ag77
ag93
atRp1332
(dp1333
g1148
(lp1334
S'-'
aS'-'
asg1150
I01
sg1120
F109.47122063449069
sbag1
(g1258
g3
(lp1335
g125
ag109
ag93
atRp1336
(dp1337
g1148
(lp1338
S'-'
aS'='
asg1150
I01
sg1120
F120
sbag1
(g1258
g3
(lp1339
g379
ag109
ag93
atRp1340
(dp1341
g1148
(lp1342
S'-'
aS'='
asg1150
I01
sg1120
F120
sbag1
(g1258
g3
(lp1343
g631
ag93
ag109
atRp1344
(dp1345
g1148
(lp1346
S'-'
aS'='
asS'must_be'
p1347
F126
sg1150
I01
sg1120
F144
sbag1
(g1258
g3
(lp1348
g147
ag125
ag109
atRp1349
(dp1350
g1148
(lp1351
S'-'
aS'-'
asg1150
I01
sg1120
F109.47122063449069
sbag1
(g1258
g3
(lp1352
g335
ag125
ag109
atRp1353
(dp1354
g1148
(lp1355
S'-'
aS'-'
asg1150
I01
sg1120
F109.47122063449069
sbag1
(g1258
g3
(lp1356
g357
ag125
ag109
atRp1357
(dp1358
g1148
(lp1359
S'-'
aS'-'
asg1150
I01
sg1120
F109.47122063449069
sbag1
(g1258
g3
(lp1360
g395
ag379
ag109
atRp1361
(dp1362
g1148
(lp1363
S'-'
aS'-'
asg1150
I01
sg1120
F109.47122063449069
sbag1
(g1258
g3
(lp1364
g479
ag379
ag109
atRp1365
(dp1366
g1148
(lp1367
S'-'
aS'-'
asg1150
I01
sg1120
F109.47122063449069
sbag1
(g1258
g3
(lp1368
g379
ag109
ag125
atRp1369
(dp1370
g1148
(lp1371
S'-'
aS'-'
asg1150
I01
sg1120
F120
sbag1
(g1258
g3
(lp1372
g169
ag147
ag125
atRp1373
(dp1374
g1148
(lp1375
S'-'
aS'-'
asg1150
I01
sg1120
F109.47122063449069
sbag1
(g1258
g3
(lp1376
g335
ag125
ag147
atRp1377
(dp1378
g1148
(lp1379
S'-'
aS'-'
asg1150
I01
sg1120
F109.47122063449069
sbag1
(g1258
g3
(lp1380
g357
ag125
ag147
atRp1381
(dp1382
g1148
(lp1383
S'-'
aS'-'
asg1150
I01
sg1120
F109.47122063449069
sbag1
(g1258
g3
(lp1384
g189
ag169
ag147
atRp1385
(dp1386
g1148
(lp1387
S'='
aS'-'
asg1150
I01
sg1120
F120
sbag1
(g1258
g3
(lp1388
g225
ag169
ag147
atRp1389
(dp1390
g1148
(lp1391
S'='
aS'-'
asg1150
I01
sg1120
F120
sbag1
(g1258
g3
(lp1392
g247
ag169
ag147
atRp1393
(dp1394
g1148
(lp1395
S'-'
aS'-'
asg1150
I01
sg1120
F120
sbag1
(g1258
g3
(lp1396
g415
ag395
ag379
atRp1397
(dp1398
g1148
(lp1399
S'-'
aS'-'
asg1150
I01
sg1120
F109.47122063449069
sbag1
(g1258
g3
(lp1400
g436
ag395
ag379
atRp1401
(dp1402
g1148
(lp1403
S'-'
aS'-'
asg1150
I01
sg1120
F109.47122063449069
sbag1
(g1258
g3
(lp1404
g457
ag395
ag379
atRp1405
(dp1406
g1148
(lp1407
S'-'
aS'-'
asg1150
I01
sg1120
F109.47122063449069
sbag1
(g1258
g3
(lp1408
g499
ag479
ag379
atRp1409
(dp1410
g1148
(lp1411
S'-'
aS'-'
asg1150
I01
sg1120
F109.47122063449069
sbag1
(g1258
g3
(lp1412
g520
ag479
ag379
atRp1413
(dp1414
g1148
(lp1415
S'-'
aS'-'
asg1150
I01
sg1120
F109.47122063449069
sbag1
(g1258
g3
(lp1416
g541
ag479
ag379
atRp1417
(dp1418
g1148
(lp1419
S'-'
aS'-'
asg1150
I01
sg1120
F109.47122063449069
sbag1
(g1258
g3
(lp1420
g479
ag379
ag395
atRp1421
(dp1422
g1148
(lp1423
S'-'
aS'-'
asg1150
I01
sg1120
F109.47122063449069
sbag1
(g1258
g3
(lp1424
g743
ag77
ag659
atRp1425
(dp1426
g1148
(lp1427
S'-'
aS'-'
asg1150
I01
sg1120
F109.47122063449069
sbag1
(g1258
g3
(lp1428
g357
ag125
ag335
atRp1429
(dp1430
g1148
(lp1431
S'-'
aS'-'
asg1150
I01
sg1120
F109.47122063449069
sbag1
(g1258
g3
(lp1432
g436
ag395
ag415
atRp1433
(dp1434
g1148
(lp1435
S'-'
aS'-'
asg1150
I01
sg1120
F109.47122063449069
sbag1
(g1258
g3
(lp1436
g457
ag395
ag415
atRp1437
(dp1438
g1148
(lp1439
S'-'
aS'-'
asg1150
I01
sg1120
F109.47122063449069
sbag1
(g1258
g3
(lp1440
g457
ag395
ag436
atRp1441
(dp1442
g1148
(lp1443
S'-'
aS'-'
asg1150
I01
sg1120
F109.47122063449069
sbag1
(g1258
g3
(lp1444
g520
ag479
ag499
atRp1445
(dp1446
g1148
(lp1447
S'-'
aS'-'
asg1150
I01
sg1120
F109.47122063449069
sbag1
(g1258
g3
(lp1448
g541
ag479
ag499
atRp1449
(dp1450
g1148
(lp1451
S'-'
aS'-'
asg1150
I01
sg1120
F109.47122063449069
sbag1
(g1258
g3
(lp1452
g541
ag479
ag520
atRp1453
(dp1454
g1148
(lp1455
S'-'
aS'-'
asg1150
I01
sg1120
F109.47122063449069
sbag1
(g1258
g3
(lp1456
g700
ag659
ag679
atRp1457
(dp1458
g1148
(lp1459
S'-'
aS'-'
asg1150
I01
sg1120
F109.47122063449069
sbag1
(g1258
g3
(lp1460
g721
ag659
ag679
atRp1461
(dp1462
g1148
(lp1463
S'-'
aS'-'
asg1150
I01
sg1120
F109.47122063449069
sbag1
(g1258
g3
(lp1464
g721
ag659
ag700
atRp1465
(dp1466
g1148
(lp1467
S'-'
aS'-'
asg1150
I01
sg1120
F109.47122063449069
sbag1
(g1258
g3
(lp1468
g784
ag743
ag763
atRp1469
(dp1470
g1148
(lp1471
S'-'
aS'-'
asg1150
I01
sg1120
F109.47122063449069
sbag1
(g1258
g3
(lp1472
g805
ag743
ag763
atRp1473
(dp1474
g1148
(lp1475
S'-'
aS'-'
asg1150
I01
sg1120
F109.47122063449069
sbag1
(g1258
g3
(lp1476
g805
ag743
ag784
atRp1477
(dp1478
g1148
(lp1479
S'-'
aS'-'
asg1150
I01
sg1120
F109.47122063449069
sbag1
(g1258
g3
(lp1480
g268
ag247
ag169
atRp1481
(dp1482
g1148
(lp1483
S'-'
aS'-'
asg1150
I01
sg1120
F109.47122063449069
sbag1
(g1258
g3
(lp1484
g290
ag247
ag169
atRp1485
(dp1486
g1148
(lp1487
S'-'
aS'-'
asg1150
I01
sg1120
F109.47122063449069
sbag1
(g1258
g3
(lp1488
g311
ag247
ag169
atRp1489
(dp1490
g1148
(lp1491
S'-'
aS'-'
asg1150
I01
sg1120
F109.47122063449069
sbag1
(g1258
g3
(lp1492
g225
ag169
ag189
atRp1493
(dp1494
g1148
(lp1495
S'='
aS'='
asg1150
I01
sg1120
F109.47122063449069
sbag1
(g1258
g3
(lp1496
g247
ag169
ag189
atRp1497
(dp1498
g1148
(lp1499
S'-'
aS'='
asg1150
I01
sg1120
F120
sbag1
(g1258
g3
(lp1500
g247
ag169
ag225
atRp1501
(dp1502
g1148
(lp1503
S'-'
aS'='
asg1150
I01
sg1120
F120
sbag1
(g1258
g3
(lp1504
g290
ag247
ag268
atRp1505
(dp1506
g1148
(lp1507
S'-'
aS'-'
asg1150
I01
sg1120
F109.47122063449069
sbag1
(g1258
g3
(lp1508
g311
ag247
ag268
atRp1509
(dp1510
g1148
(lp1511
S'-'
aS'-'
asg1150
I01
sg1120
F109.47122063449069
sbag1
(g1258
g3
(lp1512
g311
ag247
ag290
atRp1513
(dp1514
g1148
(lp1515
S'-'
aS'-'
asg1150
I01
sg1120
F109.47122063449069
sbatRp1516
sS'use_parent_energise'
p1517
I01
sS'dihedrals'
p1518
g1
(g1141
g3
(lp1519
g1
(celbow.chemistry.DihedralClass
DihedralClass
p1520
g3
(lp1521
g93
ag77
ag59
ag5
atRp1522
(dp1523
g1148
(lp1524
S'-'
aS'-'
aS'-'
asg1150
I00
sbag1
(g1520
g3
(lp1525
g659
ag77
ag59
ag5
atRp1526
(dp1527
g1148
(lp1528
S'-'
aS'-'
aS'-'
asg1150
I00
sbag1
(g1520
g3
(lp1529
g743
ag77
ag59
ag5
atRp1530
(dp1531
g1148
(lp1532
S'-'
aS'-'
aS'-'
asg1150
I00
sbag1
(g1520
g3
(lp1533
g109
ag379
ag59
ag5
atRp1534
(dp1535
g1148
(lp1536
S'-'
aS'-'
aS'-'
asg1150
I00
sbag1
(g1520
g3
(lp1537
g395
ag379
ag59
ag5
atRp1538
(dp1539
g1148
(lp1540
S'-'
aS'-'
aS'-'
asg1150
I00
sbag1
(g1520
g3
(lp1541
g479
ag379
ag59
ag5
atRp1542
(dp1543
g1148
(lp1544
S'-'
aS'-'
aS'-'
asg1150
I00
sbag1
(g1520
g3
(lp1545
g109
ag93
ag77
ag59
atRp1546
(dp1547
g1148
(lp1548
S'='
aS'-'
aS'-'
asg1150
I00
sbag1
(g1520
g3
(lp1549
g631
ag93
ag77
ag59
atRp1550
(dp1551
g1148
(lp1552
S'-'
aS'-'
aS'-'
asg1150
I00
sbag1
(g1520
g3
(lp1553
g679
ag659
ag77
ag59
atRp1554
(dp1555
g1148
(lp1556
S'-'
aS'-'
aS'-'
asg1150
I00
sbag1
(g1520
g3
(lp1557
g700
ag659
ag77
ag59
atRp1558
(dp1559
g1148
(lp1560
S'-'
aS'-'
aS'-'
asg1150
I00
sbag1
(g1520
g3
(lp1561
g721
ag659
ag77
ag59
atRp1562
(dp1563
g1148
(lp1564
S'-'
aS'-'
aS'-'
asg1150
I00
sbag1
(g1520
g3
(lp1565
g763
ag743
ag77
ag59
atRp1566
(dp1567
g1148
(lp1568
S'-'
aS'-'
aS'-'
asg1150
I00
sbag1
(g1520
g3
(lp1569
g784
ag743
ag77
ag59
atRp1570
(dp1571
g1148
(lp1572
S'-'
aS'-'
aS'-'
asg1150
I00
sbag1
(g1520
g3
(lp1573
g805
ag743
ag77
ag59
atRp1574
(dp1575
g1148
(lp1576
S'-'
aS'-'
aS'-'
asg1150
I00
sbag1
(g1520
g3
(lp1577
g93
ag109
ag379
ag59
atRp1578
(dp1579
g1148
(lp1580
S'='
aS'-'
aS'-'
asg1150
I00
sbag1
(g1520
g3
(lp1581
g125
ag109
ag379
ag59
atRp1582
(dp1583
g1148
(lp1584
S'-'
aS'-'
aS'-'
asg1150
I00
sbag1
(g1520
g3
(lp1585
g415
ag395
ag379
ag59
atRp1586
(dp1587
g1148
(lp1588
S'-'
aS'-'
aS'-'
asg1150
I00
sbag1
(g1520
g3
(lp1589
g436
ag395
ag379
ag59
atRp1590
(dp1591
g1148
(lp1592
S'-'
aS'-'
aS'-'
asg1150
I00
sbag1
(g1520
g3
(lp1593
g457
ag395
ag379
ag59
atRp1594
(dp1595
g1148
(lp1596
S'-'
aS'-'
aS'-'
asg1150
I00
sbag1
(g1520
g3
(lp1597
g499
ag479
ag379
ag59
atRp1598
(dp1599
g1148
(lp1600
S'-'
aS'-'
aS'-'
asg1150
I00
sbag1
(g1520
g3
(lp1601
g520
ag479
ag379
ag59
atRp1602
(dp1603
g1148
(lp1604
S'-'
aS'-'
aS'-'
asg1150
I00
sbag1
(g1520
g3
(lp1605
g541
ag479
ag379
ag59
atRp1606
(dp1607
g1148
(lp1608
S'-'
aS'-'
aS'-'
asg1150
I00
sbag1
(g1520
g3
(lp1609
g109
ag379
ag59
ag77
atRp1610
(dp1611
g1148
(lp1612
S'-'
aS'-'
aS'-'
asg1150
I00
sbag1
(g1520
g3
(lp1613
g395
ag379
ag59
ag77
atRp1614
(dp1615
g1148
(lp1616
S'-'
aS'-'
aS'-'
asg1150
I00
sbag1
(g1520
g3
(lp1617
g479
ag379
ag59
ag77
atRp1618
(dp1619
g1148
(lp1620
S'-'
aS'-'
aS'-'
asg1150
I00
sbag1
(g1520
g3
(lp1621
g125
ag109
ag93
ag77
atRp1622
(dp1623
g1148
(lp1624
S'-'
aS'='
aS'-'
asg1150
I00
sbag1
(g1520
g3
(lp1625
g379
ag109
ag93
ag77
atRp1626
(dp1627
g1148
(lp1628
S'-'
aS'='
aS'-'
asg1150
I00
sbag1
(g1520
g3
(lp1629
g379
ag59
ag77
ag93
atRp1630
(dp1631
g1148
(lp1632
S'-'
aS'-'
aS'-'
asg1150
I00
sbag1
(g1520
g3
(lp1633
g679
ag659
ag77
ag93
atRp1634
(dp1635
g1148
(lp1636
S'-'
aS'-'
aS'-'
asg1150
I00
sbag1
(g1520
g3
(lp1637
g700
ag659
ag77
ag93
atRp1638
(dp1639
g1148
(lp1640
S'-'
aS'-'
aS'-'
asg1150
I00
sbag1
(g1520
g3
(lp1641
g721
ag659
ag77
ag93
atRp1642
(dp1643
g1148
(lp1644
S'-'
aS'-'
aS'-'
asg1150
I00
sbag1
(g1520
g3
(lp1645
g763
ag743
ag77
ag93
atRp1646
(dp1647
g1148
(lp1648
S'-'
aS'-'
aS'-'
asg1150
I00
sbag1
(g1520
g3
(lp1649
g784
ag743
ag77
ag93
atRp1650
(dp1651
g1148
(lp1652
S'-'
aS'-'
aS'-'
asg1150
I00
sbag1
(g1520
g3
(lp1653
g805
ag743
ag77
ag93
atRp1654
(dp1655
g1148
(lp1656
S'-'
aS'-'
aS'-'
asg1150
I00
sbag1
(g1520
g3
(lp1657
g147
ag125
ag109
ag93
atRp1658
(dp1659
g1148
(lp1660
S'-'
aS'-'
aS'='
asg1150
I00
sbag1
(g1520
g3
(lp1661
g335
ag125
ag109
ag93
atRp1662
(dp1663
g1148
(lp1664
S'-'
aS'-'
aS'='
asg1150
I00
sbag1
(g1520
g3
(lp1665
g357
ag125
ag109
ag93
atRp1666
(dp1667
g1148
(lp1668
S'-'
aS'-'
aS'='
asg1150
I00
sbag1
(g1520
g3
(lp1669
g395
ag379
ag109
ag93
atRp1670
(dp1671
g1148
(lp1672
S'-'
aS'-'
aS'='
asg1150
I00
sbag1
(g1520
g3
(lp1673
g479
ag379
ag109
ag93
atRp1674
(dp1675
g1148
(lp1676
S'-'
aS'-'
aS'='
asg1150
I00
sbag1
(g1520
g3
(lp1677
g659
ag77
ag93
ag109
atRp1678
(dp1679
g1148
(lp1680
S'-'
aS'-'
aS'='
asg1150
I00
sbag1
(g1520
g3
(lp1681
g743
ag77
ag93
ag109
atRp1682
(dp1683
g1148
(lp1684
S'-'
aS'-'
aS'='
asg1150
I00
sbag1
(g1520
g3
(lp1685
g169
ag147
ag125
ag109
atRp1686
(dp1687
g1148
(lp1688
S'-'
aS'-'
aS'-'
asg1150
I00
sbag1
(g1520
g3
(lp1689
g415
ag395
ag379
ag109
atRp1690
(dp1691
g1148
(lp1692
S'-'
aS'-'
aS'-'
asg1150
I00
sbag1
(g1520
g3
(lp1693
g436
ag395
ag379
ag109
atRp1694
(dp1695
g1148
(lp1696
S'-'
aS'-'
aS'-'
asg1150
I00
sbag1
(g1520
g3
(lp1697
g457
ag395
ag379
ag109
atRp1698
(dp1699
g1148
(lp1700
S'-'
aS'-'
aS'-'
asg1150
I00
sbag1
(g1520
g3
(lp1701
g499
ag479
ag379
ag109
atRp1702
(dp1703
g1148
(lp1704
S'-'
aS'-'
aS'-'
asg1150
I00
sbag1
(g1520
g3
(lp1705
g520
ag479
ag379
ag109
atRp1706
(dp1707
g1148
(lp1708
S'-'
aS'-'
aS'-'
asg1150
I00
sbag1
(g1520
g3
(lp1709
g541
ag479
ag379
ag109
atRp1710
(dp1711
g1148
(lp1712
S'-'
aS'-'
aS'-'
asg1150
I00
sbag1
(g1520
g3
(lp1713
g631
ag93
ag109
ag125
atRp1714
(dp1715
g1148
(lp1716
S'-'
aS'='
aS'-'
asg1150
I00
sbag1
(g1520
g3
(lp1717
g395
ag379
ag109
ag125
atRp1718
(dp1719
g1148
(lp1720
S'-'
aS'-'
aS'-'
asg1150
I00
sbag1
(g1520
g3
(lp1721
g479
ag379
ag109
ag125
atRp1722
(dp1723
g1148
(lp1724
S'-'
aS'-'
aS'-'
asg1150
I00
sbag1
(g1520
g3
(lp1725
g189
ag169
ag147
ag125
atRp1726
(dp1727
g1148
(lp1728
S'='
aS'-'
aS'-'
asg1150
I00
sbag1
(g1520
g3
(lp1729
g225
ag169
ag147
ag125
atRp1730
(dp1731
g1148
(lp1732
S'='
aS'-'
aS'-'
asg1150
I00
sbag1
(g1520
g3
(lp1733
g247
ag169
ag147
ag125
atRp1734
(dp1735
g1148
(lp1736
S'-'
aS'-'
aS'-'
asg1150
I00
sbag1
(g1520
g3
(lp1737
g379
ag109
ag125
ag147
atRp1738
(dp1739
g1148
(lp1740
S'-'
aS'-'
aS'-'
asg1150
I00
sbag1
(g1520
g3
(lp1741
g268
ag247
ag169
ag147
atRp1742
(dp1743
g1148
(lp1744
S'-'
aS'-'
aS'-'
asg1150
I00
sbag1
(g1520
g3
(lp1745
g290
ag247
ag169
ag147
atRp1746
(dp1747
g1148
(lp1748
S'-'
aS'-'
aS'-'
asg1150
I00
sbag1
(g1520
g3
(lp1749
g311
ag247
ag169
ag147
atRp1750
(dp1751
g1148
(lp1752
S'-'
aS'-'
aS'-'
asg1150
I00
sbag1
(g1520
g3
(lp1753
g659
ag77
ag59
ag379
atRp1754
(dp1755
g1148
(lp1756
S'-'
aS'-'
aS'-'
asg1150
I00
sbag1
(g1520
g3
(lp1757
g743
ag77
ag59
ag379
atRp1758
(dp1759
g1148
(lp1760
S'-'
aS'-'
aS'-'
asg1150
I00
sbag1
(g1520
g3
(lp1761
g631
ag93
ag109
ag379
atRp1762
(dp1763
g1148
(lp1764
S'-'
aS'='
aS'-'
asg1150
I00
sbag1
(g1520
g3
(lp1765
g335
ag125
ag109
ag379
atRp1766
(dp1767
g1148
(lp1768
S'-'
aS'-'
aS'-'
asg1150
I00
sbag1
(g1520
g3
(lp1769
g357
ag125
ag109
ag379
atRp1770
(dp1771
g1148
(lp1772
S'-'
aS'-'
aS'-'
asg1150
I00
sbag1
(g1520
g3
(lp1773
g499
ag479
ag379
ag395
atRp1774
(dp1775
g1148
(lp1776
S'-'
aS'-'
aS'-'
asg1150
I00
sbag1
(g1520
g3
(lp1777
g520
ag479
ag379
ag395
atRp1778
(dp1779
g1148
(lp1780
S'-'
aS'-'
aS'-'
asg1150
I00
sbag1
(g1520
g3
(lp1781
g541
ag479
ag379
ag395
atRp1782
(dp1783
g1148
(lp1784
S'-'
aS'-'
aS'-'
asg1150
I00
sbag1
(g1520
g3
(lp1785
g415
ag395
ag379
ag479
atRp1786
(dp1787
g1148
(lp1788
S'-'
aS'-'
aS'-'
asg1150
I00
sbag1
(g1520
g3
(lp1789
g436
ag395
ag379
ag479
atRp1790
(dp1791
g1148
(lp1792
S'-'
aS'-'
aS'-'
asg1150
I00
sbag1
(g1520
g3
(lp1793
g457
ag395
ag379
ag479
atRp1794
(dp1795
g1148
(lp1796
S'-'
aS'-'
aS'-'
asg1150
I00
sbag1
(g1520
g3
(lp1797
g631
ag93
ag77
ag659
atRp1798
(dp1799
g1148
(lp1800
S'-'
aS'-'
aS'-'
asg1150
I00
sbag1
(g1520
g3
(lp1801
g763
ag743
ag77
ag659
atRp1802
(dp1803
g1148
(lp1804
S'-'
aS'-'
aS'-'
asg1150
I00
sbag1
(g1520
g3
(lp1805
g784
ag743
ag77
ag659
atRp1806
(dp1807
g1148
(lp1808
S'-'
aS'-'
aS'-'
asg1150
I00
sbag1
(g1520
g3
(lp1809
g805
ag743
ag77
ag659
atRp1810
(dp1811
g1148
(lp1812
S'-'
aS'-'
aS'-'
asg1150
I00
sbag1
(g1520
g3
(lp1813
g631
ag93
ag77
ag743
atRp1814
(dp1815
g1148
(lp1816
S'-'
aS'-'
aS'-'
asg1150
I00
sbag1
(g1520
g3
(lp1817
g679
ag659
ag77
ag743
atRp1818
(dp1819
g1148
(lp1820
S'-'
aS'-'
aS'-'
asg1150
I00
sbag1
(g1520
g3
(lp1821
g700
ag659
ag77
ag743
atRp1822
(dp1823
g1148
(lp1824
S'-'
aS'-'
aS'-'
asg1150
I00
sbag1
(g1520
g3
(lp1825
g721
ag659
ag77
ag743
atRp1826
(dp1827
g1148
(lp1828
S'-'
aS'-'
aS'-'
asg1150
I00
sbag1
(g1520
g3
(lp1829
g169
ag147
ag125
ag335
atRp1830
(dp1831
g1148
(lp1832
S'-'
aS'-'
aS'-'
asg1150
I00
sbag1
(g1520
g3
(lp1833
g169
ag147
ag125
ag357
atRp1834
(dp1835
g1148
(lp1836
S'-'
aS'-'
aS'-'
asg1150
I00
sbag1
(g1520
g3
(lp1837
g268
ag247
ag169
ag189
atRp1838
(dp1839
g1148
(lp1840
S'-'
aS'-'
aS'='
asg1150
I00
sbag1
(g1520
g3
(lp1841
g290
ag247
ag169
ag189
atRp1842
(dp1843
g1148
(lp1844
S'-'
aS'-'
aS'='
asg1150
I00
sbag1
(g1520
g3
(lp1845
g311
ag247
ag169
ag189
atRp1846
(dp1847
g1148
(lp1848
S'-'
aS'-'
aS'='
asg1150
I00
sbag1
(g1520
g3
(lp1849
g268
ag247
ag169
ag225
atRp1850
(dp1851
g1148
(lp1852
S'-'
aS'-'
aS'='
asg1150
I00
sbag1
(g1520
g3
(lp1853
g290
ag247
ag169
ag225
atRp1854
(dp1855
g1148
(lp1856
S'-'
aS'-'
aS'='
asg1150
I00
sbag1
(g1520
g3
(lp1857
g311
ag247
ag169
ag225
atRp1858
(dp1859
g1148
(lp1860
S'-'
aS'-'
aS'='
asg1150
I00
sbatRp1861
sbssS'chiral_zmatrix'
p1862
(dp1863
sS'trace'
p1864
(dp1865
I0
(dp1866
S'C'
I1
ssI1
(dp1867
S'H'
I3
sssg1140
g1253
sS'start_time'
p1868
F1568119328.567076
sS'UseCIFWeights'
p1869
I01
sg918
(lp1870
sS'ring_class'
p1871
(lp1872
g1
(g846
g3
(lp1873
(lp1874
g59
ag379
ag109
ag93
ag77
aatRp1875
(dp1876
g891
I01
sg892
g998
sg915
I00
sg916
(lp1877
sg924
(lp1878
F0
aF0
aF0
aF0
aF0
aF0
asg920
(lp1879
sg983
g1072
sg922
(dp1880
sg918
(lp1881
sg926
I01
sg927
I01
sg928
I7
sg929
g1097
sS'ideal_ring_angles'
p1882
(lp1883
g1
(celbow.chemistry.RingClass
RingCircle
p1884
g3
(lp1885
(ielbow.chemistry.RingClass
empty
p1886
(dp1887
g210
I2
sg7
(ielbow.chemistry.xyzClass
xyzClass
p1888
(dp1889
g10
I1
sg11
F57.295779513082323
sS'y'
F0.058999999999999997
sS'x'
F2.3319999999999999
sg12
g63
sS'z'
F0.79700000000000004
sbsg570
I0
sg14
(ielbow.chemistry.xyzClass
xyzClass
p1890
(dp1891
g10
I0
sg11
F57.295779513082323
sS'y'
F-1.1011055363769386
sS'x'
F0.80000000000000004
sg12
g577
sS'z'
F0
sbsg217
S'N'
sg564
I01
sg73
I00
sg12
(ielbow.chemistry.xyzClass
xyzClass
p1892
(dp1893
g10
I0
sg11
F57.295779513082323
sS'y'
F8.8817841970012523e-16
sS'x'
F-0.00011478397676356611
sg12
(F-0.00011478397676356611
F8.8817841970012523e-16
I0
tp1894
sS'z'
I0
sbsba(ielbow.chemistry.RingClass
empty
p1895
(dp1896
g210
I8
sg7
(ielbow.chemistry.xyzClass
xyzClass
p1897
(dp1898
g10
I1
sg11
F57.295779513082323
sS'y'
F-1.0489999999999999
sS'x'
F1.6140000000000001
sg12
g383
sS'z'
F0.123
sbsg570
I1
sg14
(ielbow.chemistry.xyzClass
xyzClass
p1899
(dp1900
g10
I0
sg11
F57.295779513082323
sS'y'
F0.42058488969530705
sS'x'
F1.2944271909999159
sg12
g601
sS'z'
F0
sbsg217
S'C'
sg564
I01
sg73
I00
sg12
(ielbow.chemistry.xyzClass
xyzClass
p1901
(dp1902
g10
I0
sg11
F57.295779513082323
sS'y'
I0
sS'x'
F1.451533
sg12
(F1.451533
I0
I0
tp1903
sS'z'
I0
sbsba(ielbow.chemistry.RingClass
empty
p1904
(dp1905
g210
I5
sg7
(ielbow.chemistry.xyzClass
xyzClass
p1906
(dp1907
g10
I1
sg11
F57.295779513082323
sS'y'
F-0.38100000000000001
sS'x'
F0.56799999999999995
sg12
g113
sS'z'
F-0.73999999999999999
sbsg570
I0
sg14
(ielbow.chemistry.xyzClass
xyzClass
p1908
(dp1909
g10
I0
sg11
F57.295779513082323
sS'y'
F1.3610412933632641
sS'x'
F-2.2204460492503131e-16
sg12
g595
sS'z'
F0
sbsg217
S'C'
sg564
I01
sg73
I00
sg12
(ielbow.chemistry.xyzClass
xyzClass
p1910
(dp1911
g10
I0
sg11
F57.295779513082323
sS'y'
F1.4463445627318801
sS'x'
F1.9416362806786001
sg12
(F1.9416362806786001
F1.4463445627318801
I0
tp1912
sS'z'
I0
sbsg611
I01
sba(ielbow.chemistry.RingClass
empty
p1913
(dp1914
g210
I4
sg7
(ielbow.chemistry.xyzClass
xyzClass
p1915
(dp1916
g10
I1
sg11
F57.295779513082323
sS'y'
F0.88400000000000001
sS'x'
F0.87
sg12
g97
sS'z'
F-0.89100000000000001
sbsg570
I1
sg14
(ielbow.chemistry.xyzClass
xyzClass
p1917
(dp1918
g10
I0
sg11
F57.295779513082323
sS'y'
F0.42058488969530683
sS'x'
F-1.2944271909999161
sg12
g589
sS'z'
F0
sbsg217
S'C'
sg564
I01
sg73
I00
sg12
(ielbow.chemistry.xyzClass
xyzClass
p1919
(dp1920
g10
I0
sg11
F57.295779513082323
sS'y'
F2.319969371262407
sS'x'
F0.68908148595064089
sg12
(F0.68908148595064089
F2.319969371262407
I0
tp1921
sS'z'
I0
sbsg611
I01
sba(ielbow.chemistry.RingClass
empty
p1922
(dp1923
g210
I3
sg7
(ielbow.chemistry.xyzClass
xyzClass
p1924
(dp1925
g10
I1
sg11
F57.295779513082323
sS'y'
F1.1890000000000001
sS'x'
F2.1480000000000001
sg12
g81
sS'z'
F-0.14399999999999999
sbsg570
I0
sg14
(ielbow.chemistry.xyzClass
xyzClass
p1926
(dp1927
g10
I0
sg11
F57.295779513082323
sS'y'
F-1.1011055363769389
sS'x'
F-0.80000000000000004
sg12
g583
sS'z'
F0
sbsg217
S'C'
sg564
I01
sg73
I00
sg12
(ielbow.chemistry.xyzClass
xyzClass
p1928
(dp1929
g10
I0
sg11
F57.295779513082323
sS'y'
F1.3625130782446737
sS'x'
F-0.50062068973735063
sg12
(F-0.50062068973735063
F1.3625130782446737
I0
tp1930
sS'z'
I0
sbsbatRp1931
(dp1932
g1140
(lp1933
F1.451533
aF1.527126
aF1.527126
aF1.527126
aF1.451533
asbasbasg1256
g1516
sS'used_auto_bond'
p1934
I00
sg1518
g1861
sS'auto_bond_cutoff'
p1935
F4
sg891
I01
sS'CIFWeights'
p1936
(dp1937
g896
F3
sg933
F30
sS'outer_ring'
p1938
F0.050000000000000003
sS'amine'
p1939
F0.10000000000000001
sS'peptide'
p1940
F0.10000000000000001
sS'inner_ring'
p1941
F0.02
sg897
F0.02
ssS'last'
p1942
Nsg44
S''
sS'amine_class'
p1943
g1
(g980
g3
(ltRp1944
(dp1945
g983
g1
(g984
g953
(dtRp1946
(dp1947
g987
Nsg988
(dp1948
sg990
I00
sg991
(lp1949
sg993
(dp1950
sbsg995
(lp1951
sbsS'G_md5'
p1952
S'5a4c5dbb42497f9ce1474c19366a65f8'
p1953
sS'files_written'
p1954
g1
(celbow.utilities.Utilities
PushFilename
p1955
g3
(lp1956
S'/home/liuyoujia/Desktop/MTN_1.17rc/6N87/MTN.pdb'
p1957
aS'/home/liuyoujia/Desktop/MTN_1.17rc/6N87/MTN.cif'
p1958
atRp1959
sg926
I01
sS'azide_class'
p1960
g1
(g980
g3
(ltRp1961
(dp1962
g983
g1
(g984
g953
(dtRp1963
(dp1964
g987
Nsg988
(dp1965
sg990
I00
sg991
(lp1966
sg993
(dp1967
sbsg995
(lp1968
sbsS'SubUnitEnergies'
p1969
(dp1970
(I5
I6
I130
tp1971
F881.90396181513597
s(I6
I7
I220
tp1972
F898.41261455076119
s(I6
I7
I0
tp1973
F882.3509283468419
s(I5
I6
I90
tp1974
F882.53542897231387
s(I6
I7
I90
tp1975
F885.02695683908121
s(I5
I6
I310
tp1976
F881.99430331111932
s(I7
I28
I20
tp1977
F882.45065635436481
s(I7
I28
I130
tp1978
F883.13527404905108
s(I5
I6
I20
tp1979
F882.56426771337283
s(I5
I6
I240
tp1980
F881.42344596523446
s(I6
I7
I150
tp1981
F898.28196863403878
s(I6
I7
I140
tp1982
F894.25192615741116
s(I6
I7
I70
tp1983
F883.51438602431904
s(I7
I28
I100
tp1984
F883.01039257272907
s(I7
I28
I210
tp1985
F882.66753114769369
s(I7
I28
I320
tp1986
F882.25270989387491
s(I5
I6
I140
tp1987
F881.79526400438135
s(I7
I28
I30
tp1988
F882.5097052022453
s(I7
I28
I140
tp1989
F883.13538749369593
s(I5
I6
I30
tp1990
F882.67616665361015
s(I5
I6
I70
tp1991
F882.84462699069979
s(I6
I7
I280
tp1992
F886.20472226885511
s(I5
I6
I290
tp1993
F881.82299587556918
s(I6
I7
I210
tp1994
F897.62521274167977
s(I5
I6
I250
tp1995
F881.47665825566423
s(I5
I6
I0
tp1996
F882.3509283468419
s(I5
I6
I180
tp1997
F881.51476330200467
s(I6
I7
I50
tp1998
F882.74307958485406
s(I7
I28
I220
tp1999
F882.59091786773308
s(I7
I28
I330
tp2000
F882.26253812384755
s(I6
I7
I200
tp2001
F896.15466044480695
s(I6
I7
I350
tp2002
F882.48049843486228
s(I6
I7
I130
tp2003
F891.09619845879956
s(I7
I28
I40
tp2004
F882.57387683350169
s(I7
I28
I150
tp2005
F883.11175581264536
s(I7
I28
I260
tp2006
F882.37294976964847
s(I5
I6
I300
tp2007
F881.91335529437288
s(I6
I7
I40
tp2008
F882.51739855554422
s(I6
I7
I190
tp2009
F895.48097794328362
s(I5
I6
I10
tp2010
F882.45251045633404
s(I6
I7
I340
tp2011
F882.68427761514226
s(I5
I6
I230
tp2012
F881.3922149673482
s(I6
I7
I270
tp2013
F887.5437336977991
s(I5
I6
I190
tp2014
F881.46732574451653
s(I7
I28
I120
tp2015
F883.11180286339982
s(I7
I28
I230
tp2016
F882.52372844168792
s(I6
I7
I60
tp2017
F883.06564011489638
s(I7
I28
I340
tp2018
F882.2825438810363
s(I5
I6
I160
tp2019
F881.63019531694272
s(I5
I6
I120
tp2020
F882.03188594862229
s(I5
I6
I340
tp2021
F882.1925370848528
s(I7
I28
I50
tp2022
F882.6427075163939
s(I7
I28
I160
tp2023
F883.06675630923405
s(I7
I28
I270
tp2024
F882.33617750835651
s(I6
I7
I260
tp2025
F889.43997239199996
s(I5
I6
I50
tp2026
F882.856136941606
s(I6
I7
I120
tp2027
F889.38222094203934
s(I6
I7
I100
tp2028
F886.29106953824146
s(I6
I7
I250
tp2029
F891.67263536460757
s(I7
I28
I240
tp2030
F882.46571880007855
s(I7
I28
I350
tp2031
F882.31228722071489
s(I5
I6
I170
tp2032
F881.56819805035423
s(I7
I28
I110
tp2033
F883.0685081392478
s(I6
I7
I330
tp2034
F882.96960294108987
s(I6
I7
I180
tp2035
F895.50849865531245
s(I5
I6
I350
tp2036
F882.26467321081793
s(I7
I28
I60
tp2037
F882.7156280405884
s(I7
I28
I170
tp2038
F883.00376892971497
s(I7
I28
I280
tp2039
F882.30520661673177
s(I5
I6
I100
tp2040
F882.34963258530718
s(I5
I6
I320
tp2041
F882.06484494521931
s(I5
I6
I60
tp2042
F882.88918721383243
s(I5
I6
I280
tp2043
F881.72786780053661
s(I6
I7
I170
tp2044
F895.76968292357913
s(I6
I7
I110
tp2045
F887.88635682350923
s(I6
I7
I240
tp2046
F893.63525268587284
s(I6
I7
I320
tp2047
F883.34678751916692
s(I5
I6
I210
tp2048
F881.39695386605524
s(I7
I28
I250
tp2049
F882.41584454624808
s(I6
I7
I160
tp2050
F896.57124245426814
s(I6
I7
I310
tp2051
F883.83021319231671
s(I7
I28
I70
tp2052
F882.79145231078576
s(I7
I28
I180
tp2053
F882.92661481107632
s(I7
I28
I290
tp2054
F882.28035947384399
s(I5
I6
I110
tp2055
F882.18014332540361
s(I5
I6
I330
tp2056
F882.1285755618328
s(I6
I7
I20
tp2057
F882.29762051443549
s(I7
I28
I0
tp2058
F882.35092834684144
s(I5
I6
I40
tp2059
F882.77747339636471
s(I5
I6
I260
tp2060
F881.54855462360695
s(I6
I7
I300
tp2061
F884.44084104908927
s(I5
I6
I220
tp2062
F881.38398394002911
s(I6
I7
I230
tp2063
F896.73226003063053
s(I5
I6
I150
tp2064
F881.70472030699557
s(I7
I28
I80
tp2065
F882.86800652666807
s(I7
I28
I190
tp2066
F882.84050276343658
s(I7
I28
I300
tp2067
F882.26253589040607
s(I5
I6
I80
tp2068
F882.71496660218418
s(I7
I28
I10
tp2069
F882.3974141246822
s(I5
I6
I270
tp2070
F881.63424951835827
s(I6
I7
I80
tp2071
F884.1397527650314
s(I6
I7
I10
tp2072
F882.29075657841804
s(I6
I7
I30
tp2073
F882.37188140487604
s(I5
I6
I200
tp2074
F881.42663543040726
s(I6
I7
I290
tp2075
F885.21210150457898
s(I7
I28
I90
tp2076
F882.94219963900503
s(I7
I28
I200
tp2077
F882.7520658308315
s(I7
I28
I310
tp2078
F882.25294370384086
ssS'lines'
p2079
S'data_MTN\n#\n_chem_comp.id                                    MTN\n_chem_comp.name                                  "S-[(1-oxyl-2,2,5,5-tetramethyl-2,5-dihydro-1H-pyrrol-3-yl)methyl] methanesulfonothioate"\n_chem_comp.type                                  NON-POLYMER\n_chem_comp.pdbx_type                             HETAIN\n_chem_comp.formula                               "C10 H18 N O3 S2"\n_chem_comp.mon_nstd_parent_comp_id               ?\n_chem_comp.pdbx_synonyms                         MTSL\n_chem_comp.pdbx_formal_charge                    0\n_chem_comp.pdbx_initial_date                     2003-12-10\n_chem_comp.pdbx_modified_date                    2011-06-04\n_chem_comp.pdbx_ambiguous_flag                   N\n_chem_comp.pdbx_release_status                   REL\n_chem_comp.pdbx_replaced_by                      ?\n_chem_comp.pdbx_replaces                         ?\n_chem_comp.formula_weight                        264.385\n_chem_comp.one_letter_code                       ?\n_chem_comp.three_letter_code                     MTN\n_chem_comp.pdbx_model_coordinates_details        ?\n_chem_comp.pdbx_model_coordinates_missing_flag   Y\n_chem_comp.pdbx_ideal_coordinates_details        Corina\n_chem_comp.pdbx_ideal_coordinates_missing_flag   N\n_chem_comp.pdbx_model_coordinates_db_code        1RF8\n_chem_comp.pdbx_subcomponent_list                ?\n_chem_comp.pdbx_processing_site                  RCSB\n#\nloop_\n_chem_comp_atom.comp_id\n_chem_comp_atom.atom_id\n_chem_comp_atom.alt_atom_id\n_chem_comp_atom.type_symbol\n_chem_comp_atom.charge\n_chem_comp_atom.pdbx_align\n_chem_comp_atom.pdbx_aromatic_flag\n_chem_comp_atom.pdbx_leaving_atom_flag\n_chem_comp_atom.pdbx_stereo_config\n_chem_comp_atom.model_Cartn_x\n_chem_comp_atom.model_Cartn_y\n_chem_comp_atom.model_Cartn_z\n_chem_comp_atom.pdbx_model_Cartn_x_ideal\n_chem_comp_atom.pdbx_model_Cartn_y_ideal\n_chem_comp_atom.pdbx_model_Cartn_z_ideal\n_chem_comp_atom.pdbx_component_atom_id\n_chem_comp_atom.pdbx_component_comp_id\n_chem_comp_atom.pdbx_ordinal\nMTN O1  O1  O 0 1 N N N 19.719 7.694 -14.530 3.751  -0.260 0.961  O1  MTN 1\nMTN N1  N1  N 0 1 N N N 18.593 7.157 -14.304 2.332  0.059  0.797  N1  MTN 2\nMTN C1  C1  C 0 1 N N N 17.521 7.823 -13.537 2.148  1.189  -0.144 C1  MTN 3\nMTN C2  C2  C 0 1 N N N 16.479 6.769 -13.589 0.870  0.884  -0.891 C2  MTN 4\nMTN C3  C3  C 0 1 N N N 16.848 5.689 -14.251 0.568  -0.381 -0.740 C3  MTN 5\nMTN C4  C4  C 0 1 N N N 16.002 4.479 -14.456 -0.636 -1.065 -1.334 C4  MTN 6\nMTN S1  S1  S 0 1 N N N 14.280 4.648 -13.889 -1.862 -1.370 -0.033 S1  MTN 7\nMTN C5  C5  C 0 1 N N N 18.251 5.793 -14.797 1.614  -1.049 0.123  C5  MTN 8\nMTN C6  C6  C 0 1 N N N 19.170 4.680 -14.311 0.946  -1.955 1.159  C6  MTN 9\nMTN C7  C7  C 0 1 N N N 18.201 5.826 -16.320 2.580  -1.857 -0.746 C7  MTN 10\nMTN C8  C8  C 0 1 N N N 17.056 9.071 -14.270 3.325  1.266  -1.118 C8  MTN 11\nMTN C9  C9  C 0 1 N N N 17.927 8.146 -12.101 2.010  2.504  0.627  C9  MTN 12\nMTN H2  H2  H 0 1 N N N 15.508 6.876 -13.128 0.295  1.599  -1.461 H2  MTN 13\nMTN H41 H41 H 0 1 N N N 15.980 4.264 -15.535 -1.073 -0.429 -2.103 H41 MTN 14\nMTN H42 H42 H 0 1 N N N 16.460 3.651 -13.895 -0.333 -2.014 -1.777 H42 MTN 15\nMTN H61 H61 H 0 1 N N N 18.835 3.719 -14.728 0.254  -1.368 1.763  H61 MTN 16\nMTN H62 H62 H 0 1 N N N 20.199 4.884 -14.641 0.401  -2.749 0.649  H62 MTN 17\nMTN H63 H63 H 0 1 N N N 19.140 4.633 -13.212 1.708  -2.393 1.803  H63 MTN 18\nMTN H71 H71 H 0 1 N N N 17.949 4.825 -16.701 3.429  -2.178 -0.142 H71 MTN 19\nMTN H72 H72 H 0 1 N N N 17.435 6.545 -16.646 2.066  -2.731 -1.144 H72 MTN 20\nMTN H73 H73 H 0 1 N N N 19.182 6.131 -16.712 2.934  -1.237 -1.569 H73 MTN 21\nMTN H81 H81 H 0 1 N N N 16.258 9.560 -13.692 3.322  0.386  -1.762 H81 MTN 22\nMTN H82 H82 H 0 1 N N N 17.902 9.764 -14.387 3.234  2.164  -1.730 H82 MTN 23\nMTN H83 H83 H 0 1 N N N 16.671 8.792 -15.262 4.259  1.303  -0.557 H83 MTN 24\nMTN H91 H91 H 0 1 N N N 17.090 8.639 -11.585 2.910  2.675  1.217  H91 MTN 25\nMTN H92 H92 H 0 1 N N N 18.185 7.215 -11.575 1.875  3.325  -0.077 H92 MTN 26\nMTN H93 H93 H 0 1 N N N 18.799 8.817 -12.109 1.146  2.447  1.289  H93 MTN 27\nMTN S2  S2  S 0 1 N Y N ?      ?     ?       -2.700 0.479  0.253  S2  MTN 28\nMTN O2  O2  O 0 1 N Y N ?      ?     ?       -3.473 0.334  1.437  O2  MTN 29\nMTN O3  O3  O 0 1 N Y N ?      ?     ?       -1.599 1.375  0.202  O3  MTN 30\nMTN C12 C12 C 0 1 N Y N ?      ?     ?       -3.780 0.714  -1.186 C12 MTN 31\nMTN H4  H4  H 0 1 N Y N ?      ?     ?       -4.531 -0.075 -1.209 H4  MTN 32\nMTN H1  H1  H 0 1 N Y N ?      ?     ?       -4.272 1.684  -1.116 H1  MTN 33\nMTN H3  H3  H 0 1 N Y N ?      ?     ?       -3.183 0.674  -2.097 H3  MTN 34\n#\nloop_\n_chem_comp_bond.comp_id\n_chem_comp_bond.atom_id_1\n_chem_comp_bond.atom_id_2\n_chem_comp_bond.value_order\n_chem_comp_bond.pdbx_aromatic_flag\n_chem_comp_bond.pdbx_stereo_config\n_chem_comp_bond.pdbx_ordinal\nMTN O1  N1  SING N N 1\nMTN N1  C1  SING N N 2\nMTN N1  C5  SING N N 3\nMTN C1  C2  SING N N 4\nMTN C1  C8  SING N N 5\nMTN C1  C9  SING N N 6\nMTN C2  C3  DOUB N N 7\nMTN C2  H2  SING N N 8\nMTN C3  C4  SING N N 9\nMTN C3  C5  SING N N 10\nMTN C4  S1  SING N N 11\nMTN C4  H41 SING N N 12\nMTN C4  H42 SING N N 13\nMTN C5  C6  SING N N 14\nMTN C5  C7  SING N N 15\nMTN C6  H61 SING N N 16\nMTN C6  H62 SING N N 17\nMTN C6  H63 SING N N 18\nMTN C7  H71 SING N N 19\nMTN C7  H72 SING N N 20\nMTN C7  H73 SING N N 21\nMTN C8  H81 SING N N 22\nMTN C8  H82 SING N N 23\nMTN C8  H83 SING N N 24\nMTN C9  H91 SING N N 25\nMTN C9  H92 SING N N 26\nMTN C9  H93 SING N N 27\nMTN S1  S2  SING N N 28\nMTN S2  O2  DOUB N N 29\nMTN S2  O3  DOUB N N 30\nMTN S2  C12 SING N N 31\nMTN C12 H4  SING N N 32\nMTN C12 H1  SING N N 33\nMTN C12 H3  SING N N 34\n#\nloop_\n_pdbx_chem_comp_descriptor.comp_id\n_pdbx_chem_comp_descriptor.type\n_pdbx_chem_comp_descriptor.program\n_pdbx_chem_comp_descriptor.program_version\n_pdbx_chem_comp_descriptor.descriptor\nMTN SMILES           ACDLabs              12.01 "ON1C(C=C(CSS(=O)(=O)C)C1(C)C)(C)C"\nMTN SMILES_CANONICAL CACTVS               3.370 "CC1(C)C=C(CS[S](C)(=O)=O)C(C)(C)N1[O]"\nMTN SMILES           CACTVS               3.370 "CC1(C)C=C(CS[S](C)(=O)=O)C(C)(C)N1[O]"\nMTN SMILES_CANONICAL "OpenEye OEToolkits" 1.7.2 "CC1(C=C(C(N1[O])(C)C)CSS(=O)(=O)C)C"\nMTN SMILES           "OpenEye OEToolkits" 1.7.2 "CC1(C=C(C(N1[O])(C)C)CSS(=O)(=O)C)C"\nMTN InChI            InChI                1.03  "InChI=1S/C10H19NO3S2/c1-9(2)6-8(7-15-16(5,13)14)10(3,4)11(9)12/h6,12H,7H2,1-5H3"\nMTN InChIKey         InChI                1.03  MXZPGYFBZHBAQM-UHFFFAOYSA-N\n#\nloop_\n_pdbx_chem_comp_identifier.comp_id\n_pdbx_chem_comp_identifier.type\n_pdbx_chem_comp_identifier.program\n_pdbx_chem_comp_identifier.program_version\n_pdbx_chem_comp_identifier.identifier\nMTN "SYSTEMATIC NAME" ACDLabs              12.01 "S-[(1-hydroxy-2,2,5,5-tetramethyl-2,5-dihydro-1H-pyrrol-3-yl)methyl] methanesulfonothioate"\nMTN "SYSTEMATIC NAME" "OpenEye OEToolkits" 1.7.2 "1-$l^{1}-oxidanyl-2,2,5,5-tetramethyl-3-(methylsulfonylsulfanylmethyl)pyrrole"\n#\nloop_\n_pdbx_chem_comp_audit.comp_id\n_pdbx_chem_comp_audit.action_type\n_pdbx_chem_comp_audit.date\n_pdbx_chem_comp_audit.processing_site\nMTN "Create component"   2003-12-10 RCSB\nMTN "Other modification" 2011-05-10 RCSB\nMTN "Modify descriptor"  2011-06-04 RCSB\n#\n'
p2080
sS'ALT_dihedrals'
p2081
g1
(g1141
g3
(lp2082
g1
(g1520
g3
(lp2083
g5
ag59
ag77
ag93
atRp2084
(dp2085
g1148
(lp2086
S''
aS''
aS''
asg1150
I00
sbag1
(g1520
g3
(lp2087
g59
ag379
ag109
ag93
atRp2088
(dp2089
g1148
(lp2090
S''
aS''
aS''
asg1150
I00
sbag1
(g1520
g3
(lp2091
g59
ag77
ag93
ag109
atRp2092
(dp2093
g1148
(lp2094
S''
aS''
aS''
asg1150
I00
sbag1
(g1520
g3
(lp2095
g5
ag59
ag379
ag109
atRp2096
(dp2097
g1148
(lp2098
S''
aS''
aS''
asg1150
I00
sbag1
(g1520
g3
(lp2099
g77
ag59
ag379
ag109
atRp2100
(dp2101
g1148
(lp2102
S''
aS''
aS''
asg1150
I00
sbag1
(g1520
g3
(lp2103
g77
ag93
ag109
ag125
atRp2104
(dp2105
g1148
(lp2106
S''
aS''
aS''
asg1150
I00
sbag1
(g1520
g3
(lp2107
g59
ag379
ag109
ag125
atRp2108
(dp2109
g1148
(lp2110
S''
aS''
aS''
asg1150
I00
sbag1
(g1520
g3
(lp2111
g93
ag109
ag125
ag147
atRp2112
(dp2113
g1148
(lp2114
S''
aS''
aS''
asg1150
I00
sbag1
(g1520
g3
(lp2115
g93
ag77
ag59
ag379
atRp2116
(dp2117
g1148
(lp2118
S''
aS''
aS''
asg1150
I00
sbag1
(g1520
g3
(lp2119
g77
ag93
ag109
ag379
atRp2120
(dp2121
g1148
(lp2122
S''
aS''
aS''
asg1150
I00
sbag1
(g1520
g3
(lp2123
g147
ag125
ag109
ag379
atRp2124
(dp2125
g1148
(lp2126
S''
aS''
aS''
asg1150
I00
sbag1
(g1520
g3
(lp2127
g5
ag59
ag379
ag395
atRp2128
(dp2129
g1148
(lp2130
S''
aS''
aS''
asg1150
I00
sbag1
(g1520
g3
(lp2131
g77
ag59
ag379
ag395
atRp2132
(dp2133
g1148
(lp2134
S''
aS''
aS''
asg1150
I00
sbag1
(g1520
g3
(lp2135
g93
ag109
ag379
ag395
atRp2136
(dp2137
g1148
(lp2138
S''
aS''
aS''
asg1150
I00
sbag1
(g1520
g3
(lp2139
g125
ag109
ag379
ag395
atRp2140
(dp2141
g1148
(lp2142
S''
aS''
aS''
asg1150
I00
sbag1
(g1520
g3
(lp2143
g5
ag59
ag379
ag479
atRp2144
(dp2145
g1148
(lp2146
S''
aS''
aS''
asg1150
I00
sbag1
(g1520
g3
(lp2147
g77
ag59
ag379
ag479
atRp2148
(dp2149
g1148
(lp2150
S''
aS''
aS''
asg1150
I00
sbag1
(g1520
g3
(lp2151
g93
ag109
ag379
ag479
atRp2152
(dp2153
g1148
(lp2154
S''
aS''
aS''
asg1150
I00
sbag1
(g1520
g3
(lp2155
g125
ag109
ag379
ag479
atRp2156
(dp2157
g1148
(lp2158
S''
aS''
aS''
asg1150
I00
sbag1
(g1520
g3
(lp2159
g5
ag59
ag77
ag659
atRp2160
(dp2161
g1148
(lp2162
S''
aS''
aS''
asg1150
I00
sbag1
(g1520
g3
(lp2163
g379
ag59
ag77
ag659
atRp2164
(dp2165
g1148
(lp2166
S''
aS''
aS''
asg1150
I00
sbag1
(g1520
g3
(lp2167
g109
ag93
ag77
ag659
atRp2168
(dp2169
g1148
(lp2170
S''
aS''
aS''
asg1150
I00
sbag1
(g1520
g3
(lp2171
g5
ag59
ag77
ag743
atRp2172
(dp2173
g1148
(lp2174
S''
aS''
aS''
asg1150
I00
sbag1
(g1520
g3
(lp2175
g379
ag59
ag77
ag743
atRp2176
(dp2177
g1148
(lp2178
S''
aS''
aS''
asg1150
I00
sbag1
(g1520
g3
(lp2179
g109
ag93
ag77
ag743
atRp2180
(dp2181
g1148
(lp2182
S''
aS''
aS''
asg1150
I00
sbag1
(g1520
g3
(lp2183
g59
ag77
ag93
ag631
atRp2184
(dp2185
g1148
(lp2186
S''
aS''
aS''
asg1150
I00
sbag1
(g1520
g3
(lp2187
g659
ag77
ag93
ag631
atRp2188
(dp2189
g1148
(lp2190
S''
aS''
aS''
asg1150
I00
sbag1
(g1520
g3
(lp2191
g743
ag77
ag93
ag631
atRp2192
(dp2193
g1148
(lp2194
S''
aS''
aS''
asg1150
I00
sbag1
(g1520
g3
(lp2195
g125
ag109
ag93
ag631
atRp2196
(dp2197
g1148
(lp2198
S''
aS''
aS''
asg1150
I00
sbag1
(g1520
g3
(lp2199
g379
ag109
ag93
ag631
atRp2200
(dp2201
g1148
(lp2202
S''
aS''
aS''
asg1150
I00
sbag1
(g1520
g3
(lp2203
g93
ag109
ag125
ag335
atRp2204
(dp2205
g1148
(lp2206
S''
aS''
aS''
asg1150
I00
sbag1
(g1520
g3
(lp2207
g379
ag109
ag125
ag335
atRp2208
(dp2209
g1148
(lp2210
S''
aS''
aS''
asg1150
I00
sbag1
(g1520
g3
(lp2211
g93
ag109
ag125
ag357
atRp2212
(dp2213
g1148
(lp2214
S''
aS''
aS''
asg1150
I00
sbag1
(g1520
g3
(lp2215
g379
ag109
ag125
ag357
atRp2216
(dp2217
g1148
(lp2218
S''
aS''
aS''
asg1150
I00
sbag1
(g1520
g3
(lp2219
g59
ag379
ag395
ag415
atRp2220
(dp2221
g1148
(lp2222
S''
aS''
aS''
asg1150
I00
sbag1
(g1520
g3
(lp2223
g109
ag379
ag395
ag415
atRp2224
(dp2225
g1148
(lp2226
S''
aS''
aS''
asg1150
I00
sbag1
(g1520
g3
(lp2227
g479
ag379
ag395
ag415
atRp2228
(dp2229
g1148
(lp2230
S''
aS''
aS''
asg1150
I00
sbag1
(g1520
g3
(lp2231
g59
ag379
ag395
ag436
atRp2232
(dp2233
g1148
(lp2234
S''
aS''
aS''
asg1150
I00
sbag1
(g1520
g3
(lp2235
g109
ag379
ag395
ag436
atRp2236
(dp2237
g1148
(lp2238
S''
aS''
aS''
asg1150
I00
sbag1
(g1520
g3
(lp2239
g479
ag379
ag395
ag436
atRp2240
(dp2241
g1148
(lp2242
S''
aS''
aS''
asg1150
I00
sbag1
(g1520
g3
(lp2243
g59
ag379
ag395
ag457
atRp2244
(dp2245
g1148
(lp2246
S''
aS''
aS''
asg1150
I00
sbag1
(g1520
g3
(lp2247
g109
ag379
ag395
ag457
atRp2248
(dp2249
g1148
(lp2250
S''
aS''
aS''
asg1150
I00
sbag1
(g1520
g3
(lp2251
g479
ag379
ag395
ag457
atRp2252
(dp2253
g1148
(lp2254
S''
aS''
aS''
asg1150
I00
sbag1
(g1520
g3
(lp2255
g59
ag379
ag479
ag499
atRp2256
(dp2257
g1148
(lp2258
S''
aS''
aS''
asg1150
I00
sbag1
(g1520
g3
(lp2259
g109
ag379
ag479
ag499
atRp2260
(dp2261
g1148
(lp2262
S''
aS''
aS''
asg1150
I00
sbag1
(g1520
g3
(lp2263
g395
ag379
ag479
ag499
atRp2264
(dp2265
g1148
(lp2266
S''
aS''
aS''
asg1150
I00
sbag1
(g1520
g3
(lp2267
g59
ag379
ag479
ag520
atRp2268
(dp2269
g1148
(lp2270
S''
aS''
aS''
asg1150
I00
sbag1
(g1520
g3
(lp2271
g109
ag379
ag479
ag520
atRp2272
(dp2273
g1148
(lp2274
S''
aS''
aS''
asg1150
I00
sbag1
(g1520
g3
(lp2275
g395
ag379
ag479
ag520
atRp2276
(dp2277
g1148
(lp2278
S''
aS''
aS''
asg1150
I00
sbag1
(g1520
g3
(lp2279
g59
ag379
ag479
ag541
atRp2280
(dp2281
g1148
(lp2282
S''
aS''
aS''
asg1150
I00
sbag1
(g1520
g3
(lp2283
g109
ag379
ag479
ag541
atRp2284
(dp2285
g1148
(lp2286
S''
aS''
aS''
asg1150
I00
sbag1
(g1520
g3
(lp2287
g395
ag379
ag479
ag541
atRp2288
(dp2289
g1148
(lp2290
S''
aS''
aS''
asg1150
I00
sbag1
(g1520
g3
(lp2291
g59
ag77
ag659
ag679
atRp2292
(dp2293
g1148
(lp2294
S''
aS''
aS''
asg1150
I00
sbag1
(g1520
g3
(lp2295
g93
ag77
ag659
ag679
atRp2296
(dp2297
g1148
(lp2298
S''
aS''
aS''
asg1150
I00
sbag1
(g1520
g3
(lp2299
g743
ag77
ag659
ag679
atRp2300
(dp2301
g1148
(lp2302
S''
aS''
aS''
asg1150
I00
sbag1
(g1520
g3
(lp2303
g59
ag77
ag659
ag700
atRp2304
(dp2305
g1148
(lp2306
S''
aS''
aS''
asg1150
I00
sbag1
(g1520
g3
(lp2307
g93
ag77
ag659
ag700
atRp2308
(dp2309
g1148
(lp2310
S''
aS''
aS''
asg1150
I00
sbag1
(g1520
g3
(lp2311
g743
ag77
ag659
ag700
atRp2312
(dp2313
g1148
(lp2314
S''
aS''
aS''
asg1150
I00
sbag1
(g1520
g3
(lp2315
g59
ag77
ag659
ag721
atRp2316
(dp2317
g1148
(lp2318
S''
aS''
aS''
asg1150
I00
sbag1
(g1520
g3
(lp2319
g93
ag77
ag659
ag721
atRp2320
(dp2321
g1148
(lp2322
S''
aS''
aS''
asg1150
I00
sbag1
(g1520
g3
(lp2323
g743
ag77
ag659
ag721
atRp2324
(dp2325
g1148
(lp2326
S''
aS''
aS''
asg1150
I00
sbag1
(g1520
g3
(lp2327
g59
ag77
ag743
ag763
atRp2328
(dp2329
g1148
(lp2330
S''
aS''
aS''
asg1150
I00
sbag1
(g1520
g3
(lp2331
g93
ag77
ag743
ag763
atRp2332
(dp2333
g1148
(lp2334
S''
aS''
aS''
asg1150
I00
sbag1
(g1520
g3
(lp2335
g659
ag77
ag743
ag763
atRp2336
(dp2337
g1148
(lp2338
S''
aS''
aS''
asg1150
I00
sbag1
(g1520
g3
(lp2339
g59
ag77
ag743
ag784
atRp2340
(dp2341
g1148
(lp2342
S''
aS''
aS''
asg1150
I00
sbag1
(g1520
g3
(lp2343
g93
ag77
ag743
ag784
atRp2344
(dp2345
g1148
(lp2346
S''
aS''
aS''
asg1150
I00
sbag1
(g1520
g3
(lp2347
g659
ag77
ag743
ag784
atRp2348
(dp2349
g1148
(lp2350
S''
aS''
aS''
asg1150
I00
sbag1
(g1520
g3
(lp2351
g59
ag77
ag743
ag805
atRp2352
(dp2353
g1148
(lp2354
S''
aS''
aS''
asg1150
I00
sbag1
(g1520
g3
(lp2355
g93
ag77
ag743
ag805
atRp2356
(dp2357
g1148
(lp2358
S''
aS''
aS''
asg1150
I00
sbag1
(g1520
g3
(lp2359
g659
ag77
ag743
ag805
atRp2360
(dp2361
g1148
(lp2362
S''
aS''
aS''
asg1150
I00
sbag1
(g1520
g3
(lp2363
g109
ag125
ag147
ag169
atRp2364
(dp2365
g1148
(lp2366
S''
aS''
aS''
asg1150
I00
sbag1
(g1520
g3
(lp2367
g335
ag125
ag147
ag169
atRp2368
(dp2369
g1148
(lp2370
S''
aS''
aS''
asg1150
I00
sbag1
(g1520
g3
(lp2371
g357
ag125
ag147
ag169
atRp2372
(dp2373
g1148
(lp2374
S''
aS''
aS''
asg1150
I00
sbag1
(g1520
g3
(lp2375
g125
ag147
ag169
ag189
atRp2376
(dp2377
g1148
(lp2378
S''
aS''
aS''
asg1150
I00
sbag1
(g1520
g3
(lp2379
g125
ag147
ag169
ag225
atRp2380
(dp2381
g1148
(lp2382
S''
aS''
aS''
asg1150
I00
sbag1
(g1520
g3
(lp2383
g125
ag147
ag169
ag247
atRp2384
(dp2385
g1148
(lp2386
S''
aS''
aS''
asg1150
I00
sbag1
(g1520
g3
(lp2387
g147
ag169
ag247
ag268
atRp2388
(dp2389
g1148
(lp2390
S''
aS''
aS''
asg1150
I00
sbag1
(g1520
g3
(lp2391
g189
ag169
ag247
ag268
atRp2392
(dp2393
g1148
(lp2394
S''
aS''
aS''
asg1150
I00
sbag1
(g1520
g3
(lp2395
g225
ag169
ag247
ag268
atRp2396
(dp2397
g1148
(lp2398
S''
aS''
aS''
asg1150
I00
sbag1
(g1520
g3
(lp2399
g147
ag169
ag247
ag290
atRp2400
(dp2401
g1148
(lp2402
S''
aS''
aS''
asg1150
I00
sbag1
(g1520
g3
(lp2403
g189
ag169
ag247
ag290
atRp2404
(dp2405
g1148
(lp2406
S''
aS''
aS''
asg1150
I00
sbag1
(g1520
g3
(lp2407
g225
ag169
ag247
ag290
atRp2408
(dp2409
g1148
(lp2410
S''
aS''
aS''
asg1150
I00
sbag1
(g1520
g3
(lp2411
g147
ag169
ag247
ag311
atRp2412
(dp2413
g1148
(lp2414
S''
aS''
aS''
asg1150
I00
sbag1
(g1520
g3
(lp2415
g189
ag169
ag247
ag311
atRp2416
(dp2417
g1148
(lp2418
S''
aS''
aS''
asg1150
I00
sbag1
(g1520
g3
(lp2419
g225
ag169
ag247
ag311
atRp2420
(dp2421
g1148
(lp2422
S''
aS''
aS''
asg1150
I00
sbatRp2423
sS'ALT_angles'
p2424
g1
(g1141
g3
(lp2425
g1
(g1258
g3
(lp2426
g5
ag59
ag77
atRp2427
(dp2428
g1148
(lp2429
S''
aS''
asg1150
I00
sbag1
(g1258
g3
(lp2430
g59
ag77
ag93
atRp2431
(dp2432
g1148
(lp2433
S''
aS''
asg1150
I00
sbag1
(g1258
g3
(lp2434
g77
ag93
ag109
atRp2435
(dp2436
g1148
(lp2437
S''
aS''
asg1150
I00
sbag1
(g1258
g3
(lp2438
g59
ag379
ag109
atRp2439
(dp2440
g1148
(lp2441
S''
aS''
asg1150
I00
sbag1
(g1258
g3
(lp2442
g93
ag109
ag125
atRp2443
(dp2444
g1148
(lp2445
S''
aS''
asg1150
I00
sbag1
(g1258
g3
(lp2446
g109
ag125
ag147
atRp2447
(dp2448
g1148
(lp2449
S''
aS''
asg1150
I00
sbag1
(g1258
g3
(lp2450
g5
ag59
ag379
atRp2451
(dp2452
g1148
(lp2453
S''
aS''
asg1150
I00
sbag1
(g1258
g3
(lp2454
g77
ag59
ag379
atRp2455
(dp2456
g1148
(lp2457
S''
aS''
asg1150
I00
sbag1
(g1258
g3
(lp2458
g93
ag109
ag379
atRp2459
(dp2460
g1148
(lp2461
S''
aS''
asg1150
I00
sbag1
(g1258
g3
(lp2462
g125
ag109
ag379
atRp2463
(dp2464
g1148
(lp2465
S''
aS''
asg1150
I00
sbag1
(g1258
g3
(lp2466
g59
ag379
ag395
atRp2467
(dp2468
g1148
(lp2469
S''
aS''
asg1150
I00
sbag1
(g1258
g3
(lp2470
g109
ag379
ag395
atRp2471
(dp2472
g1148
(lp2473
S''
aS''
asg1150
I00
sbag1
(g1258
g3
(lp2474
g59
ag379
ag479
atRp2475
(dp2476
g1148
(lp2477
S''
aS''
asg1150
I00
sbag1
(g1258
g3
(lp2478
g109
ag379
ag479
atRp2479
(dp2480
g1148
(lp2481
S''
aS''
asg1150
I00
sbag1
(g1258
g3
(lp2482
g395
ag379
ag479
atRp2483
(dp2484
g1148
(lp2485
S''
aS''
asg1150
I00
sbag1
(g1258
g3
(lp2486
g59
ag77
ag659
atRp2487
(dp2488
g1148
(lp2489
S''
aS''
asg1150
I00
sbag1
(g1258
g3
(lp2490
g93
ag77
ag659
atRp2491
(dp2492
g1148
(lp2493
S''
aS''
asg1150
I00
sbag1
(g1258
g3
(lp2494
g59
ag77
ag743
atRp2495
(dp2496
g1148
(lp2497
S''
aS''
asg1150
I00
sbag1
(g1258
g3
(lp2498
g93
ag77
ag743
atRp2499
(dp2500
g1148
(lp2501
S''
aS''
asg1150
I00
sbag1
(g1258
g3
(lp2502
g659
ag77
ag743
atRp2503
(dp2504
g1148
(lp2505
S''
aS''
asg1150
I00
sbag1
(g1258
g3
(lp2506
g77
ag93
ag631
atRp2507
(dp2508
g1148
(lp2509
S''
aS''
asg1150
I00
sbag1
(g1258
g3
(lp2510
g109
ag93
ag631
atRp2511
(dp2512
g1148
(lp2513
S''
aS''
asg1150
I00
sbag1
(g1258
g3
(lp2514
g109
ag125
ag335
atRp2515
(dp2516
g1148
(lp2517
S''
aS''
asg1150
I00
sbag1
(g1258
g3
(lp2518
g147
ag125
ag335
atRp2519
(dp2520
g1148
(lp2521
S''
aS''
asg1150
I00
sbag1
(g1258
g3
(lp2522
g109
ag125
ag357
atRp2523
(dp2524
g1148
(lp2525
S''
aS''
asg1150
I00
sbag1
(g1258
g3
(lp2526
g147
ag125
ag357
atRp2527
(dp2528
g1148
(lp2529
S''
aS''
asg1150
I00
sbag1
(g1258
g3
(lp2530
g335
ag125
ag357
atRp2531
(dp2532
g1148
(lp2533
S''
aS''
asg1150
I00
sbag1
(g1258
g3
(lp2534
g379
ag395
ag415
atRp2535
(dp2536
g1148
(lp2537
S''
aS''
asg1150
I00
sbag1
(g1258
g3
(lp2538
g379
ag395
ag436
atRp2539
(dp2540
g1148
(lp2541
S''
aS''
asg1150
I00
sbag1
(g1258
g3
(lp2542
g415
ag395
ag436
atRp2543
(dp2544
g1148
(lp2545
S''
aS''
asg1150
I00
sbag1
(g1258
g3
(lp2546
g379
ag395
ag457
atRp2547
(dp2548
g1148
(lp2549
S''
aS''
asg1150
I00
sbag1
(g1258
g3
(lp2550
g415
ag395
ag457
atRp2551
(dp2552
g1148
(lp2553
S''
aS''
asg1150
I00
sbag1
(g1258
g3
(lp2554
g436
ag395
ag457
atRp2555
(dp2556
g1148
(lp2557
S''
aS''
asg1150
I00
sbag1
(g1258
g3
(lp2558
g379
ag479
ag499
atRp2559
(dp2560
g1148
(lp2561
S''
aS''
asg1150
I00
sbag1
(g1258
g3
(lp2562
g379
ag479
ag520
atRp2563
(dp2564
g1148
(lp2565
S''
aS''
asg1150
I00
sbag1
(g1258
g3
(lp2566
g499
ag479
ag520
atRp2567
(dp2568
g1148
(lp2569
S''
aS''
asg1150
I00
sbag1
(g1258
g3
(lp2570
g379
ag479
ag541
atRp2571
(dp2572
g1148
(lp2573
S''
aS''
asg1150
I00
sbag1
(g1258
g3
(lp2574
g499
ag479
ag541
atRp2575
(dp2576
g1148
(lp2577
S''
aS''
asg1150
I00
sbag1
(g1258
g3
(lp2578
g520
ag479
ag541
atRp2579
(dp2580
g1148
(lp2581
S''
aS''
asg1150
I00
sbag1
(g1258
g3
(lp2582
g77
ag659
ag679
atRp2583
(dp2584
g1148
(lp2585
S''
aS''
asg1150
I00
sbag1
(g1258
g3
(lp2586
g77
ag659
ag700
atRp2587
(dp2588
g1148
(lp2589
S''
aS''
asg1150
I00
sbag1
(g1258
g3
(lp2590
g679
ag659
ag700
atRp2591
(dp2592
g1148
(lp2593
S''
aS''
asg1150
I00
sbag1
(g1258
g3
(lp2594
g77
ag659
ag721
atRp2595
(dp2596
g1148
(lp2597
S''
aS''
asg1150
I00
sbag1
(g1258
g3
(lp2598
g679
ag659
ag721
atRp2599
(dp2600
g1148
(lp2601
S''
aS''
asg1150
I00
sbag1
(g1258
g3
(lp2602
g700
ag659
ag721
atRp2603
(dp2604
g1148
(lp2605
S''
aS''
asg1150
I00
sbag1
(g1258
g3
(lp2606
g77
ag743
ag763
atRp2607
(dp2608
g1148
(lp2609
S''
aS''
asg1150
I00
sbag1
(g1258
g3
(lp2610
g77
ag743
ag784
atRp2611
(dp2612
g1148
(lp2613
S''
aS''
asg1150
I00
sbag1
(g1258
g3
(lp2614
g763
ag743
ag784
atRp2615
(dp2616
g1148
(lp2617
S''
aS''
asg1150
I00
sbag1
(g1258
g3
(lp2618
g77
ag743
ag805
atRp2619
(dp2620
g1148
(lp2621
S''
aS''
asg1150
I00
sbag1
(g1258
g3
(lp2622
g763
ag743
ag805
atRp2623
(dp2624
g1148
(lp2625
S''
aS''
asg1150
I00
sbag1
(g1258
g3
(lp2626
g784
ag743
ag805
atRp2627
(dp2628
g1148
(lp2629
S''
aS''
asg1150
I00
sbag1
(g1258
g3
(lp2630
g125
ag147
ag169
atRp2631
(dp2632
g1148
(lp2633
S''
aS''
asg1150
I00
sbag1
(g1258
g3
(lp2634
g147
ag169
ag189
atRp2635
(dp2636
g1148
(lp2637
S''
aS''
asg1150
I00
sbag1
(g1258
g3
(lp2638
g147
ag169
ag225
atRp2639
(dp2640
g1148
(lp2641
S''
aS''
asg1150
I00
sbag1
(g1258
g3
(lp2642
g189
ag169
ag225
atRp2643
(dp2644
g1148
(lp2645
S''
aS''
asg1150
I00
sbag1
(g1258
g3
(lp2646
g147
ag169
ag247
atRp2647
(dp2648
g1148
(lp2649
S''
aS''
asg1150
I00
sbag1
(g1258
g3
(lp2650
g189
ag169
ag247
atRp2651
(dp2652
g1148
(lp2653
S''
aS''
asg1150
I00
sbag1
(g1258
g3
(lp2654
g225
ag169
ag247
atRp2655
(dp2656
g1148
(lp2657
S''
aS''
asg1150
I00
sbag1
(g1258
g3
(lp2658
g169
ag247
ag268
atRp2659
(dp2660
g1148
(lp2661
S''
aS''
asg1150
I00
sbag1
(g1258
g3
(lp2662
g169
ag247
ag290
atRp2663
(dp2664
g1148
(lp2665
S''
aS''
asg1150
I00
sbag1
(g1258
g3
(lp2666
g268
ag247
ag290
atRp2667
(dp2668
g1148
(lp2669
S''
aS''
asg1150
I00
sbag1
(g1258
g3
(lp2670
g169
ag247
ag311
atRp2671
(dp2672
g1148
(lp2673
S''
aS''
asg1150
I00
sbag1
(g1258
g3
(lp2674
g268
ag247
ag311
atRp2675
(dp2676
g1148
(lp2677
S''
aS''
asg1150
I00
sbag1
(g1258
g3
(lp2678
g290
ag247
ag311
atRp2679
(dp2680
g1148
(lp2681
S''
aS''
asg1150
I00
sbatRp2682
sS'temp_cif'
p2683
S'/tmp/tmpgePYsc'
p2684
sS'zmatrix_class'
p2685
g1
(g1106
g3
(lp2686
g1
(g1108
g3
(lp2687
g5
atRp2688
(dp2689
g1112
I00
sg1113
I01
sg1114
I4
sg1115
I2
sg1116
I6
sg1117
(lp2690
I00
aI00
aI00
asg1119
I00
sg1120
Nsbag1110
ag1122
ag1126
ag1130
ag1134
ag1
(g1108
g3
(lp2691
g125
ag109
aF1.5271260836254785
ag93
aF119.99999731190766
ag77
aF-135.35677336118269
atRp2692
(dp2693
g1115
I2
sg1116
I6
sg1113
I01
sg1117
(lp2694
I00
aI00
aI00
asg1119
I00
sg1114
I4
sg1120
F1.5271260836254785
sbag1
(g1108
g3
(lp2695
g147
ag125
aF1.816344189444518
ag109
aF109.47089159621422
ag93
aF72.261194959295651
atRp2696
(dp2697
g1115
I2
sg1116
I6
sg1113
I01
sg1117
(lp2698
I00
aI00
aI00
asg1119
I00
sg1114
I4
sg1120
F1.816344189444518
sbag1
(g1108
g3
(lp2699
g395
ag379
aF1.5271258858709709
ag59
aF110.29061940727425
ag5
aF-13.981977395475656
atRp2700
(dp2701
g1115
I2
sg1116
I6
sg1113
I01
sg1117
(lp2702
I00
aI00
aI00
asg1119
I00
sg1114
I4
sg1120
F1.5271258858709709
sbag1
(g1108
g3
(lp2703
g479
ag379
aF1.5271259100123609
ag59
aF110.29061989327933
ag5
aF-136.62116213637307
atRp2704
(dp2705
g1115
I2
sg1116
I6
sg1113
I01
sg1117
(lp2706
I00
aI00
aI00
asg1119
I00
sg1114
I4
sg1120
F1.5271259100123609
sbag1
(g1108
g3
(lp2707
g659
ag77
aF1.5271259971163851
ag59
aF110.26924699998219
ag5
aF21.030730068544106
atRp2708
(dp2709
g1115
I2
sg1116
I6
sg1113
I01
sg1117
(lp2710
I00
aI00
aI00
asg1119
I00
sg1114
I4
sg1120
F1.5271259971163851
sbag1
(g1108
g3
(lp2711
g743
ag77
aF1.5271260092095305
ag59
aF110.26924751195018
ag5
aF143.60963599205004
atRp2712
(dp2713
g1115
I2
sg1116
I6
sg1113
I01
sg1117
(lp2714
I00
aI00
aI00
asg1119
I00
sg1114
I4
sg1120
F1.5271260092095305
sbag1
(g1108
g3
(lp2715
g169
ag147
aF2.1006420216410078
ag125
aF109.47122163417109
ag109
aF-173.05900211799644
atRp2716
(dp2717
g1115
I2
sg1116
I6
sg1113
I01
sg1117
(lp2718
I00
aI00
aI00
asg1119
I00
sg1114
I4
sg1120
F2.1006420216410078
sbag1
(g1108
g3
(lp2719
g189
ag169
aF1.4646639000699315
ag147
aF111.27919715410953
ag125
aF-13.141938345628455
atRp2720
(dp2721
g1115
I2
sg1116
I6
sg1113
I01
sg1117
(lp2722
I00
aI00
aI00
asg1119
I00
sg1114
I4
sg1120
F1.4646639000699315
sbag1
(g1108
g3
(lp2723
g225
ag169
aF1.4646639695778831
ag147
aF111.27919683456821
ag125
aF98.90734530073307
atRp2724
(dp2725
g1115
I2
sg1116
I6
sg1113
I01
sg1117
(lp2726
I00
aI00
aI00
asg1119
I00
sg1114
I4
sg1120
F1.4646639695778831
sbag1
(g1108
g3
(lp2727
g247
ag169
aF1.8163438668394147
ag147
aF110.25299695488189
ag125
aF-137.11729608534887
atRp2728
(dp2729
g1115
I2
sg1116
I6
sg1113
I01
sg1117
(lp2730
I00
aI00
aI00
asg1119
I00
sg1114
I4
sg1120
F1.8163438668394147
sbag1
(g1108
g3
(lp2731
g268
ag247
aF1.0833090000000001
ag169
aF109.47174895667243
ag147
aF-53.38792835407029
atRp2732
(dp2733
g1115
I2
sg1116
I6
sg1113
I01
sg1117
(lp2734
I00
aI00
aI00
asg1119
I00
sg1114
I4
sg1120
F1.0833090000000001
sbag1
(g1108
g3
(lp2735
g290
ag247
aF1.0833090000000001
ag169
aF109.472036725085
ag147
aF-173.38749551066635
atRp2736
(dp2737
g1115
I2
sg1116
I6
sg1113
I01
sg1117
(lp2738
I00
aI00
aI00
asg1119
I00
sg1114
I4
sg1120
F1.0833090000000001
sbag1
(g1108
g3
(lp2739
g311
ag247
aF1.0833090000000001
ag169
aF109.47264024691236
ag147
aF66.613811346212913
atRp2740
(dp2741
g1115
I2
sg1116
I6
sg1113
I01
sg1117
(lp2742
I00
aI00
aI00
asg1119
I00
sg1114
I4
sg1120
F1.0833090000000001
sbag1
(g1108
g3
(lp2743
g631
ag93
aF1.0833090000000001
ag77
aF119.99917673008879
ag59
aF127.72687287538092
atRp2744
(dp2745
g1115
I2
sg1116
I6
sg1113
I01
sg1117
(lp2746
I00
aI00
aI00
asg1119
I00
sg1114
I4
sg1120
F1.0833090000000001
sbag1
(g1108
g3
(lp2747
g335
ag125
aF1.0833090000000001
ag109
aF109.47290631737191
ag93
aF-47.740789890706175
atRp2748
(dp2749
g1115
I2
sg1116
I6
sg1113
I01
sg1117
(lp2750
I00
aI00
aI00
asg1119
I00
sg1114
I4
sg1120
F1.0833090000000001
sbag1
(g1108
g3
(lp2751
g357
ag125
aF1.0833090000000001
ag109
aF109.47208917886516
ag93
aF-167.73989742792875
atRp2752
(dp2753
g1115
I2
sg1116
I6
sg1113
I01
sg1117
(lp2754
I00
aI00
aI00
asg1119
I00
sg1114
I4
sg1120
F1.0833090000000001
sbag1
(g1108
g3
(lp2755
g415
ag395
aF1.0833090000000001
ag379
aF109.4755754434768
ag59
aF67.968722544608525
atRp2756
(dp2757
g1115
I2
sg1116
I6
sg1113
I01
sg1117
(lp2758
I00
aI00
aI00
asg1119
I00
sg1114
I4
sg1120
F1.0833090000000001
sbag1
(g1108
g3
(lp2759
g436
ag395
aF1.0833090000000001
ag379
aF109.47434582718563
ag59
aF-52.030624349397193
atRp2760
(dp2761
g1115
I2
sg1116
I6
sg1113
I01
sg1117
(lp2762
I00
aI00
aI00
asg1119
I00
sg1114
I4
sg1120
F1.0833090000000001
sbag1
(g1108
g3
(lp2763
g457
ag395
aF1.0833090000000001
ag379
aF109.47407613707219
ag59
aF-172.0304285453866
atRp2764
(dp2765
g1115
I2
sg1116
I6
sg1113
I01
sg1117
(lp2766
I00
aI00
aI00
asg1119
I00
sg1114
I4
sg1120
F1.0833090000000001
sbag1
(g1108
g3
(lp2767
g499
ag479
aF1.0833090000000001
ag379
aF109.47734541621965
ag59
aF-63.697021030254234
atRp2768
(dp2769
g1115
I2
sg1116
I6
sg1113
I01
sg1117
(lp2770
I00
aI00
aI00
asg1119
I00
sg1114
I4
sg1120
F1.0833090000000001
sbag1
(g1108
g3
(lp2771
g520
ag479
aF1.0833090000000001
ag379
aF109.47495765184985
ag59
aF176.29568792464551
atRp2772
(dp2773
g1115
I2
sg1116
I6
sg1113
I01
sg1117
(lp2774
I00
aI00
aI00
asg1119
I00
sg1114
I4
sg1120
F1.0833090000000001
sbag1
(g1108
g3
(lp2775
g541
ag479
aF1.0833090000000001
ag379
aF109.47220380261562
ag59
aF56.299131227692868
atRp2776
(dp2777
g1115
I2
sg1116
I6
sg1113
I01
sg1117
(lp2778
I00
aI00
aI00
asg1119
I00
sg1114
I4
sg1120
F1.0833090000000001
sbag1
(g1108
g3
(lp2779
g679
ag659
aF1.0833090000000001
ag77
aF109.47343140989653
ag59
aF176.02262512669381
atRp2780
(dp2781
g1115
I2
sg1116
I6
sg1113
I01
sg1117
(lp2782
I00
aI00
aI00
asg1119
I00
sg1114
I4
sg1120
F1.0833090000000001
sbag1
(g1108
g3
(lp2783
g700
ag659
aF1.0833090000000001
ag77
aF109.47412906842612
ag59
aF56.023980653737986
atRp2784
(dp2785
g1115
I2
sg1116
I6
sg1113
I01
sg1117
(lp2786
I00
aI00
aI00
asg1119
I00
sg1114
I4
sg1120
F1.0833090000000001
sbag1
(g1108
g3
(lp2787
g721
ag659
aF1.0833090000000001
ag77
aF109.4753228886446
ag59
aF-63.976631160607809
atRp2788
(dp2789
g1115
I2
sg1116
I6
sg1113
I01
sg1117
(lp2790
I00
aI00
aI00
asg1119
I00
sg1114
I4
sg1120
F1.0833090000000001
sbag1
(g1108
g3
(lp2791
g763
ag743
aF1.0833090000000001
ag77
aF109.47288983468418
ag59
aF-124.15066248603681
atRp2792
(dp2793
g1115
I2
sg1116
I6
sg1113
I01
sg1117
(lp2794
I00
aI00
aI00
asg1119
I00
sg1114
I4
sg1120
F1.0833090000000001
sbag1
(g1108
g3
(lp2795
g784
ag743
aF1.0833090000000001
ag77
aF109.47560377542004
ag59
aF-4.1523219621686795
atRp2796
(dp2797
g1115
I2
sg1116
I6
sg1113
I01
sg1117
(lp2798
I00
aI00
aI00
asg1119
I00
sg1114
I4
sg1120
F1.0833090000000001
sbag1
(g1108
g3
(lp2799
g805
ag743
aF1.0833090000000001
ag77
aF109.4757993757555
ag59
aF115.85097329322211
atRp2800
(dp2801
g1115
I2
sg1116
I6
sg1113
I01
sg1117
(lp2802
I00
aI00
aI00
asg1119
I00
sg1114
I4
sg1120
F1.0833090000000001
sbatRp2803
(dp2804
g891
I01
sg892
g998
sg1139
g840
sg1140
g1253
sg926
I01
sg1254
(lp2805
g5
ag59
ag77
ag93
ag109
ag379
ag125
ag147
ag395
ag479
ag659
ag743
ag169
ag189
ag225
ag247
ag268
ag290
ag311
ag631
ag335
ag357
ag415
ag436
ag457
ag499
ag520
ag541
ag679
ag700
ag721
ag763
ag784
ag805
asg1117
(dp2806
I6
(lp2807
I6
asI7
(lp2808
I6
asI8
(lp2809
I6
asI9
(lp2810
I6
asI10
(lp2811
I6
asI11
(lp2812
I6
asI12
(lp2813
I6
asI13
(lp2814
I6
asI14
(lp2815
I6
asI15
(lp2816
I6
asI16
(lp2817
I6
asI17
(lp2818
I6
asI18
(lp2819
I6
asI19
(lp2820
I6
asI20
(lp2821
I6
asI21
(lp2822
I6
asI22
(lp2823
I6
asI23
(lp2824
I6
asI24
(lp2825
I6
asI25
(lp2826
I6
asI26
(lp2827
I6
asI27
(lp2828
I6
asI28
(lp2829
I6
asI29
(lp2830
I6
asI30
(lp2831
I6
asI31
(lp2832
I6
asI32
(lp2833
I6
asI33
(lp2834
I6
assg983
g1
(g984
g953
(dp2835
g1042
g1043
sg1044
g1045
sI2
(F1.7
F0
F0
tp2836
sI3
(F1.4221629157329112
F0
F1.5756924048195329
tp2837
sI4
(F1.0760821462155326
F-1.498572529280398
F2.0167235550305018
tp2838
sg1050
g1051
sg1052
g1053
sI1
(F0
F0
F0
tp2839
sI8
(F1.5256319918948509
F-1.498572529280398
F-0.53280031178256071
tp2840
sg1055
g1056
s(I2
I1
tp2841
(lp2842
F1.5
aF100
asg1057
g1058
sg1059
g1060
sI5
(F1.1400295520681627
F-2.4247412869825808
F0.71360339113880822
tp2843
sg1062
g1063
sg1064
g1065
sg1066
g1067
sg1068
g1069
sg1070
g1071
stRp2844
(dp2845
g987
Nsg988
(dp2846
I1
I0
sI2
I1
sI3
I2
sI4
I3
sI5
I4
sI8
I5
ssg990
I00
sg991
(lp2847
sg993
g1076
sbsg1256
g1516
sg1517
I01
sg1518
g1861
sbsS'small_planar_class'
p2848
g1
(g980
g3
(ltRp2849
(dp2850
g983
g1
(g984
g953
(dtRp2851
(dp2852
g987
Nsg988
(dp2853
sg990
I00
sg991
(lp2854
sg993
(dp2855
sbsg995
(lp2856
sbsS'all_rings'
p2857
(lp2858
(lp2859
S'2'
aS'3'
aS'4'
aS'5'
aS'8'
aasS'bonds_md5'
p2860
S'd9ccbf7f7d1c0adef9e0053d07ee0c47'
p2861
sg983
g1
(g984
g953
(dp2862
I1
(F7.472728138618467
F-5.8824840294192793
F6.2337563844787205
tp2863
sI2
(F7.5600234327071281
F-4.4867238982033948
F6.1282969536132068
tp2864
sI3
(F6.1881711727651867
F-3.9054733301826947
F5.4762332876798805
tp2865
sI4
(F6.4776978453865031
F-3.7356989346864555
F4.1269125924183072
tp2866
sI5
(F7.9004539399010936
F-3.6961606100327358
F3.9131578886835245
tp2867
sI6
(F8.5049271936482285
F-2.6398881439740269
F2.9906533422232391
tp2868
sI7
(F8.4304689307595968
F-1.0153791230018749
F3.7996852466600002
tp2869
sI8
(F8.6367843240697706
F-4.1249189552563514
F5.1433129348611937
tp2870
sI9
(F9.5089154548504276
F-5.3416211245846803
F4.8414245561975076
tp2871
sI10
(F9.4826257537295184
F-2.9734522008142461
F5.682562537843709
tp2872
sI11
(F5.0519384145888075
F-4.9107123128195491
F5.6511147278124252
tp2873
sI12
(F5.8264848813696224
F-2.5651224345381025
F6.112437933344693
tp2874
sI13
(F105.53732570930636
F-56.494052756094788
F56.865661122338402
tp2875
sI14
(F56.524848100258446
F88.236891887738551
F-26.478508579913413
tp2876
sI15
(F64.618272012982132
F51.546925366857941
F-56.648797193111868
tp2877
sI16
(F103.34005611082932
F27.387983625270728
F-18.979652491694669
tp2878
sI17
(F8.6765952838289451
F0.21798159739310741
F47.826892957804631
tp2879
sI18
(F70.569393901697637
F25.125824053392837
F-8.6815566800039576
tp2880
sI19
(F78.353343394214292
F-24.885796525895913
F-27.33923810808648
tp2881
sI20
(F95.440946748593859
F38.8357300175417
F76.411795274696317
tp2882
sI21
(F-24.648157750468947
F-5.0088454157557276
F82.086245948467777
tp2883
sI22
(F-41.458462948127448
F-54.697884243998729
F-21.803317873194835
tp2884
sI23
(F-54.820269865910475
F42.141598328943161
F-51.221259833496156
tp2885
sI24
(F-15.956481773376485
F-48.301907119534647
F-33.453989008366271
tp2886
sI25
(F-53.622249525652762
F-78.932442880141096
F53.446667530168476
tp2887
sI26
(F26.200192269319292
F94.86072524760614
F-34.887979075662059
tp2888
sI27
(F1.435771860632939
F29.104082705561716
F-75.849241199355177
tp2889
sI28
(F9.0402852810855343
F0.46999905708338247
F2.4452582150020445
tp2890
sI29
(F9.6822542967462883
F-0.11653358620765591
F1.2666592240582832
tp2891
sg1059
g1060
sI31
(F10.137019340588379
F1.6604126064144071
F3.2693911089582817
tp2892
sI32
(F-78.386327935716579
F-18.400976602918686
F-8.8811976587213017
tp2893
sI33
(F5.7432055133073359
F-37.047356750560176
F-27.085335566706199
tp2894
sI34
(F68.406797143307529
F15.35138285740959
F-37.20654539419597
tp2895
s(I6
I7
tp2896
(lp2897
F1.816344
aF100
as(I16
I9
I8
tp2898
(lp2899
F109.47122063449069
aF1
as(I31
I28
I7
tp2900
(lp2901
F120
aF1
as(I11
I22
tp2902
(lp2903
F1.0833090000000001
aF100
as(I7
I28
tp2904
(lp2905
F2.1006420000000001
aF100
as(I9
I8
I5
tp2906
(lp2907
F109.09999999999999
aF1
as(I12
I3
I11
tp2908
(lp2909
F109.47122063449069
aF1
as(I28
I31
tp2910
(lp2911
F1.816344
aF100
asg1050
g1051
s(I23
I11
I22
tp2912
(lp2913
F109.47122063449069
aF1
asg1064
g1065
s(I11
I3
I4
tp2914
(lp2915
F109.09999999999999
aF1
as(I9
I16
tp2916
(lp2917
F1.0833090000000001
aF100
as(I31
I28
I29
tp2918
(lp2919
F120
aF1
as(I5
I4
I3
tp2920
(lp2921
F120
aF1.5
as(I3
I12
tp2922
(lp2923
F1.527126
aF100
as(I26
I12
I25
tp2924
(lp2925
F109.47122063449069
aF1
as(I8
I2
I1
tp2926
(lp2927
F109.47122063449069
aF1
as(I27
I12
I3
tp2928
(lp2929
F109.47122063449069
aF1
as(I21
I10
I8
tp2930
(lp2931
F109.47122063449069
aF1
as(I34
I31
I28
tp2932
(lp2933
F109.47122063449069
aF1
as(I27
I12
I26
tp2934
(lp2935
F109.47122063449069
aF1
asg1068
g1069
s(I21
I10
I19
tp2936
(lp2937
F109.47122063449069
aF1
asg1042
g1043
s(I15
I6
I14
tp2938
(lp2939
F109.47122063449069
aF1
as(I12
I27
tp2940
(lp2941
F1.0833090000000001
aF100
as(I3
I11
tp2942
(lp2943
F1.527126
aF100
as(I8
I9
tp2944
(lp2945
F1.527126
aF100
as(I17
I9
I8
tp2946
(lp2947
F109.47122063449069
aF1
as(I6
I14
tp2948
(lp2949
F1.0833090000000001
aF100
as(I32
I31
I28
tp2950
(lp2951
F109.47122063449069
aF1
as(I33
I31
I28
tp2952
(lp2953
F109.47122063449069
aF1
asI30
(F7.8885628452338956
F1.1406198411529973
F1.8377685126123953
tp2954
s(I34
I31
I33
tp2955
(lp2956
F109.47122063449069
aF1
as(I14
I6
I7
tp2957
(lp2958
F109.47122063449069
aF1
asg1044
g1045
s(I10
I19
tp2959
(lp2960
F1.0833090000000001
aF100
as(I14
I6
I5
tp2961
(lp2962
F109.47122063449069
aF1
as(I31
I34
tp2963
(lp2964
F1.0833090000000001
aF100
as(I12
I3
I4
tp2965
(lp2966
F109.09999999999999
aF1
as(I10
I8
I2
tp2967
(lp2968
F109.09999999999999
aF1
as(I12
I3
I2
tp2969
(lp2970
F109.09999999999999
aF1
as(I23
I11
I3
tp2971
(lp2972
F109.47122063449069
aF1
as(I10
I20
tp2973
(lp2974
F1.0833090000000001
aF100
as(I31
I33
tp2975
(lp2976
F1.0833090000000001
aF100
as(I24
I11
I3
tp2977
(lp2978
F109.47122063449069
aF1
as(I28
I29
tp2979
(lp2980
F1.464664
aF100
as(I9
I8
I2
tp2981
(lp2982
F109.09999999999999
aF1
as(I27
I12
I25
tp2983
(lp2984
F109.47122063449069
aF1
as(I13
I4
I3
tp2985
(lp2986
F120
aF1
as(I29
I28
I7
tp2987
(lp2988
F120
aF1
as(I28
I7
I6
tp2989
(lp2990
F109.47122063449069
aF1
as(I9
I18
tp2991
(lp2992
F1.0833090000000001
aF100
as(I24
I11
I22
tp2993
(lp2994
F109.47122063449069
aF1
as(I8
I10
tp2995
(lp2996
F1.527126
aF100
as(I4
I13
tp2997
(lp2998
F1.0833090000000001
aF100
as(I6
I5
I4
tp2999
(lp3000
F120
aF1
as(I13
I4
I5
tp3001
(lp3002
F120
aF1
as(I6
I15
tp3003
(lp3004
F1.0833090000000001
aF100
as(I3
I2
I1
tp3005
(lp3006
F109.47122063449069
aF1
as(I21
I10
I20
tp3007
(lp3008
F109.47122063449069
aF1
as(I12
I25
tp3009
(lp3010
F1.0833090000000001
aF100
as(I8
I5
I4
tp3011
(lp3012
F120
aF1.5
asg1057
g1058
s(I31
I28
I30
tp3013
(lp3014
F120
aF1
as(I25
I12
I3
tp3015
(lp3016
F109.47122063449069
aF1
as(I8
I5
I6
tp3017
(lp3018
F120
aF1
as(I30
I28
I7
tp3019
(lp3020
F120
aF1
as(I30
I28
I29
tp3021
(lp3022
F109.47122063449069
aF1
as(I17
I9
I16
tp3023
(lp3024
F109.47122063449069
aF1
asg1070
g1071
sg1052
g1053
s(I5
I6
tp3025
(lp3026
F1.527126
aF100
as(I18
I9
I16
tp3027
(lp3028
F109.47122063449069
aF1
as(I24
I11
I23
tp3029
(lp3030
F109.47122063449069
aF1
as(I10
I8
I9
tp3031
(lp3032
F109.47122063449069
aF1
as(I11
I23
tp3033
(lp3034
F1.0833090000000001
aF100
as(I10
I21
tp3035
(lp3036
F1.0833090000000001
aF100
as(I18
I9
I8
tp3037
(lp3038
F109.47122063449069
aF1
as(I11
I24
tp3039
(lp3040
F1.0833090000000001
aF100
as(I7
I6
I5
tp3041
(lp3042
F109.47122063449069
aF1
as(I31
I32
tp3043
(lp3044
F1.0833090000000001
aF100
as(I1
I2
tp3045
(lp3046
F1.402458
aF100
as(I28
I30
tp3047
(lp3048
F1.464664
aF100
as(I33
I31
I32
tp3049
(lp3050
F109.47122063449069
aF1
as(I10
I8
I5
tp3051
(lp3052
F109.09999999999999
aF1
as(I34
I31
I32
tp3053
(lp3054
F109.47122063449069
aF1
as(I18
I9
I17
tp3055
(lp3056
F109.47122063449069
aF1
as(I9
I17
tp3057
(lp3058
F1.0833090000000001
aF100
asg1055
g1056
s(I20
I10
I8
tp3059
(lp3060
F109.47122063449069
aF1
as(I15
I6
I7
tp3061
(lp3062
F109.47122063449069
aF1
as(I26
I12
I3
tp3063
(lp3064
F109.47122063449069
aF1
as(I12
I26
tp3065
(lp3066
F1.0833090000000001
aF100
as(I19
I10
I8
tp3067
(lp3068
F109.47122063449069
aF1
as(I15
I6
I5
tp3069
(lp3070
F109.47122063449069
aF1
as(I22
I11
I3
tp3071
(lp3072
F109.47122063449069
aF1
as(I20
I10
I19
tp3073
(lp3074
F109.47122063449069
aF1
as(I11
I3
I2
tp3075
(lp3076
F109.09999999999999
aF1
astRp3077
(dp3078
g987
Nsg988
(dp3079
I1
I0
sI2
I1
sI3
I2
sI4
I3
sI5
I4
sI6
I5
sI7
I6
sI8
I7
sI9
I8
sI10
I9
sI11
I10
sI12
I11
sI13
I12
sI14
I13
sI15
I14
sI16
I15
sI17
I16
sI18
I17
sI19
I18
sI20
I19
sI21
I20
sI22
I21
sI23
I22
sI24
I23
sI25
I24
sI26
I25
sI27
I26
sI28
I27
sI29
I28
sI30
I29
sI31
I30
sI32
I31
sI33
I32
sI34
I33
ssg990
I00
sg991
(lp3080
sg993
(dp3081
sbsS'planes'
p3082
(lp3083
sS'cctbx_energy_parameters'
p3084
(lp3085
F2
aF0.66666666666666663
aF1
aI1
a(I1
I1
I1
I1
tp3086
asg927
I01
sS'planar_indices'
p3087
(dp3088
(I2
I3
I4
I5
I8
tp3089
I01
s(I2
I8
I5
I4
I3
tp3090
I00
ssb.